---
triple:          'arm64-apple-darwin'
binary-path:     '/Users/fabianrosario/Documents/GitHub/DataStructures-TeamProject/main'
relocations:
  - { offsetInCU: 0x59A2, offset: 0x59A2, size: 0x8, addend: 0x0, symName: __ZNSt3__124__put_character_sequenceB7v160006IcNS_11char_traitsIcEEEERNS_13basic_ostreamIT_T0_EES7_PKS4_m, symObjAddr: 0x3E10, symBinAddr: 0x100005D50, symSize: 0x1EC }
  - { offsetInCU: 0x6DAB, offset: 0x6DAB, size: 0x8, addend: 0x0, symName: __ZNSt3__117__floyd_sift_downB7v160006INS_17_ClassicAlgPolicyER20CompareProcessByTimeNS_11__wrap_iterIPP7ProcessEEEET1_S9_OT0_NS_15iterator_traitsIS9_E15difference_typeE, symObjAddr: 0x884C, symBinAddr: 0x10000A78C, symSize: 0x154 }
  - { offsetInCU: 0x6E75, offset: 0x6E75, size: 0x8, addend: 0x0, symName: __ZNSt3__117__floyd_sift_downB7v160006INS_17_ClassicAlgPolicyER22CompareProcessByThreadNS_11__wrap_iterIPP7ProcessEEEET1_S9_OT0_NS_15iterator_traitsIS9_E15difference_typeE, symObjAddr: 0x90F0, symBinAddr: 0x10000B030, symSize: 0x154 }
  - { offsetInCU: 0xA1CB, offset: 0xA1CB, size: 0x8, addend: 0x0, symName: __ZNSt3__1plB7v160006IcNS_11char_traitsIcEENS_9allocatorIcEEEENS_12basic_stringIT_T0_T1_EEPKS6_OS9_, symObjAddr: 0xA90, symBinAddr: 0x1000029D0, symSize: 0x44 }
  - { offsetInCU: 0xA42E, offset: 0xA42E, size: 0x8, addend: 0x0, symName: __ZNSt3__17getlineB7v160006IcNS_11char_traitsIcEENS_9allocatorIcEEEERNS_13basic_istreamIT_T0_EES9_RNS_12basic_stringIS6_S7_T1_EE, symObjAddr: 0xB58, symBinAddr: 0x100002A98, symSize: 0x5C }
  - { offsetInCU: 0xA7C9, offset: 0xA7C9, size: 0x8, addend: 0x0, symName: __ZNSt3__1lsB7v160006INS_11char_traitsIcEEEERNS_13basic_ostreamIcT_EES6_PKc, symObjAddr: 0xCDC, symBinAddr: 0x100002C1C, symSize: 0x48 }
  - { offsetInCU: 0xA80F, offset: 0xA80F, size: 0x8, addend: 0x0, symName: __ZNSt3__14endlB7v160006IcNS_11char_traitsIcEEEERNS_13basic_ostreamIT_T0_EES7_, symObjAddr: 0xD50, symBinAddr: 0x100002C90, symSize: 0x58 }
  - { offsetInCU: 0xA85A, offset: 0xA85A, size: 0x8, addend: 0x0, symName: __ZNSt3__1plB7v160006IcNS_11char_traitsIcEENS_9allocatorIcEEEENS_12basic_stringIT_T0_T1_EEOS9_PKS6_, symObjAddr: 0xF0C, symBinAddr: 0x100002E4C, symSize: 0x40 }
  - { offsetInCU: 0xA8B2, offset: 0xA8B2, size: 0x8, addend: 0x0, symName: __ZNSt3__1neB7v160006IPP7ProcessEEbRKNS_11__wrap_iterIT_EES8_, symObjAddr: 0x1274, symBinAddr: 0x1000031B4, symSize: 0x34 }
  - { offsetInCU: 0xA90B, offset: 0xA90B, size: 0x8, addend: 0x0, symName: __ZNSt3__1eqB7v160006IPP7ProcessEEbRKNS_11__wrap_iterIT_EES8_, symObjAddr: 0x15F4, symBinAddr: 0x100003534, symSize: 0x48 }
  - { offsetInCU: 0xA94E, offset: 0xA94E, size: 0x8, addend: 0x0, symName: __ZNSt3__1neB7v160006ERKNS_16__deque_iteratorIlPlRlPS1_lLl512EEES6_, symObjAddr: 0x1AF4, symBinAddr: 0x100003A34, symSize: 0x34 }
  - { offsetInCU: 0xA98B, offset: 0xA98B, size: 0x8, addend: 0x0, symName: __ZNSt3__1eqB7v160006ERKNS_16__deque_iteratorIlPlRlPS1_lLl512EEES6_, symObjAddr: 0x1D94, symBinAddr: 0x100003CD4, symSize: 0x30 }
  - { offsetInCU: 0xA9C8, offset: 0xA9C8, size: 0x8, addend: 0x0, symName: __ZNSt3__119__libcpp_deallocateB7v160006EPvmm, symObjAddr: 0x1E9C, symBinAddr: 0x100003DDC, symSize: 0x30 }
  - { offsetInCU: 0xAA10, offset: 0xAA10, size: 0x8, addend: 0x0, symName: __ZNSt3__127__do_deallocate_handle_sizeB7v160006IJEEEvPvmDpT_, symObjAddr: 0x1ECC, symBinAddr: 0x100003E0C, symSize: 0x28 }
  - { offsetInCU: 0xAA4E, offset: 0xAA4E, size: 0x8, addend: 0x0, symName: __ZNSt3__124__libcpp_operator_deleteB7v160006IJPvEEEvDpT_, symObjAddr: 0x1EF4, symBinAddr: 0x100003E34, symSize: 0x24 }
  - { offsetInCU: 0xAA83, offset: 0xAA83, size: 0x8, addend: 0x0, symName: __ZNSt3__112__to_addressB7v160006IPlEEPT_S3_, symObjAddr: 0x2178, symBinAddr: 0x1000040B8, symSize: 0x14 }
  - { offsetInCU: 0xAAB8, offset: 0xAAB8, size: 0x8, addend: 0x0, symName: __ZNSt3__119__debug_db_insert_cB7v160006INS_12basic_stringIcNS_11char_traitsIcEENS_9allocatorIcEEEEEEvPT_, symObjAddr: 0x2478, symBinAddr: 0x1000043B8, symSize: 0x10 }
  - { offsetInCU: 0xAAE9, offset: 0xAAE9, size: 0x8, addend: 0x0, symName: __ZNSt3__118__debug_db_erase_cB7v160006INS_6vectorIP7ProcessNS_9allocatorIS3_EEEEEEvPT_, symObjAddr: 0x294C, symBinAddr: 0x10000488C, symSize: 0x10 }
  - { offsetInCU: 0xAB1A, offset: 0xAB1A, size: 0x8, addend: 0x0, symName: __ZNSt3__112__to_addressB7v160006IP7ProcessEEPT_S4_, symObjAddr: 0x2A90, symBinAddr: 0x1000049D0, symSize: 0x14 }
  - { offsetInCU: 0xAB4F, offset: 0xAB4F, size: 0x8, addend: 0x0, symName: __ZNSt3__115__debug_db_swapB7v160006INS_12basic_stringIcNS_11char_traitsIcEENS_9allocatorIcEEEEEEvPT_S8_, symObjAddr: 0x2D60, symBinAddr: 0x100004CA0, symSize: 0x14 }
  - { offsetInCU: 0xAB8E, offset: 0xAB8E, size: 0x8, addend: 0x0, symName: __ZNSt3__119__debug_db_insert_cB7v160006INS_6vectorIP7ProcessNS_9allocatorIS3_EEEEEEvPT_, symObjAddr: 0x3174, symBinAddr: 0x1000050B4, symSize: 0x10 }
  - { offsetInCU: 0xABBF, offset: 0xABBF, size: 0x8, addend: 0x0, symName: __ZNSt3__17getlineB7v160006IcNS_11char_traitsIcEENS_9allocatorIcEEEERNS_13basic_istreamIT_T0_EES9_RNS_12basic_stringIS6_S7_T1_EES6_, symObjAddr: 0x324C, symBinAddr: 0x10000518C, symSize: 0x238 }
  - { offsetInCU: 0xAC7D, offset: 0xAC7D, size: 0x8, addend: 0x0, symName: __ZNSt3__125__debug_db_invalidate_allB7v160006INS_12basic_stringIcNS_11char_traitsIcEENS_9allocatorIcEEEEEEvPT_, symObjAddr: 0x3864, symBinAddr: 0x1000057A4, symSize: 0x10 }
  - { offsetInCU: 0xAEE3, offset: 0xAEE3, size: 0x8, addend: 0x0, symName: __ZNSt3__19use_facetB7v160006INS_5ctypeIcEEEERKT_RKNS_6localeE, symObjAddr: 0x3B30, symBinAddr: 0x100005A70, symSize: 0x2C }
  - { offsetInCU: 0xB3B2, offset: 0xB3B2, size: 0x8, addend: 0x0, symName: __ZNSt3__116__pad_and_outputB7v160006IcNS_11char_traitsIcEEEENS_19ostreambuf_iteratorIT_T0_EES6_PKS4_S8_S8_RNS_8ios_baseES4_, symObjAddr: 0x404C, symBinAddr: 0x100005F8C, symSize: 0x240 }
  - { offsetInCU: 0xB481, offset: 0xB481, size: 0x8, addend: 0x0, symName: __ZNSt3__112__to_addressB7v160006IKcEEPT_S3_, symObjAddr: 0x4498, symBinAddr: 0x1000063D8, symSize: 0x14 }
  - { offsetInCU: 0xB4E9, offset: 0xB4E9, size: 0x8, addend: 0x0, symName: __ZNSt3__118__constexpr_strlenB7v160006EPKc, symObjAddr: 0x45B8, symBinAddr: 0x1000064F8, symSize: 0x24 }
  - { offsetInCU: 0xB515, offset: 0xB515, size: 0x8, addend: 0x0, symName: __ZNSt3__13maxB7v160006ImEERKT_S3_S3_, symObjAddr: 0x5218, symBinAddr: 0x100007158, symSize: 0x2C }
  - { offsetInCU: 0xB9B1, offset: 0xB9B1, size: 0x8, addend: 0x0, symName: __ZNSt3__14swapB7v160006IPPlEENS_9enable_ifIXaasr21is_move_constructibleIT_EE5valuesr18is_move_assignableIS4_EE5valueEvE4typeERS4_S7_, symObjAddr: 0x5828, symBinAddr: 0x100007768, symSize: 0x3C }
  - { offsetInCU: 0xBA02, offset: 0xBA02, size: 0x8, addend: 0x0, symName: __ZNSt3__14moveB7v160006IPPlS2_EET0_T_S4_S3_, symObjAddr: 0x590C, symBinAddr: 0x10000784C, symSize: 0x40 }
  - { offsetInCU: 0xBA78, offset: 0xBA78, size: 0x8, addend: 0x0, symName: __ZNSt3__16__moveB7v160006INS_17_ClassicAlgPolicyEPPlS3_S3_EENS_4pairIT0_T2_EES5_T1_S6_, symObjAddr: 0x5AB0, symBinAddr: 0x1000079F0, symSize: 0x44 }
  - { offsetInCU: 0xBAE4, offset: 0xBAE4, size: 0x8, addend: 0x0, symName: __ZNSt3__123__dispatch_copy_or_moveB7v160006INS_17_ClassicAlgPolicyENS_11__move_loopIS1_EENS_14__move_trivialEPPlS6_S6_EENS_4pairIT2_T4_EES8_T3_S9_, symObjAddr: 0x5AF4, symBinAddr: 0x100007A34, symSize: 0x44 }
  - { offsetInCU: 0xBB62, offset: 0xBB62, size: 0x8, addend: 0x0, symName: __ZNSt3__121__unwrap_and_dispatchB7v160006INS_10__overloadINS_11__move_loopINS_17_ClassicAlgPolicyEEENS_14__move_trivialEEEPPlS8_S8_Li0EEENS_4pairIT0_T2_EESA_T1_SB_, symObjAddr: 0x5B38, symBinAddr: 0x100007A78, symSize: 0xB4 }
  - { offsetInCU: 0xBBF0, offset: 0xBBF0, size: 0x8, addend: 0x0, symName: __ZNSt3__114__unwrap_rangeB7v160006IPPlS2_EENS_4pairIT0_S4_EET_S6_, symObjAddr: 0x5BEC, symBinAddr: 0x100007B2C, symSize: 0x60 }
  - { offsetInCU: 0xBDB4, offset: 0xBDB4, size: 0x8, addend: 0x0, symName: __ZNSt3__113__unwrap_iterB7v160006IPPlNS_18__unwrap_iter_implIS2_Lb1EEELi0EEEDTclsrT0_8__unwrapclsr3stdE7declvalIT_EEEES6_, symObjAddr: 0x5C94, symBinAddr: 0x100007BD4, symSize: 0x24 }
  - { offsetInCU: 0xBDF8, offset: 0xBDF8, size: 0x8, addend: 0x0, symName: __ZNSt3__19make_pairB7v160006IPPlS2_EENS_4pairINS_18__unwrap_ref_decayIT_E4typeENS4_IT0_E4typeEEEOS5_OS8_, symObjAddr: 0x5CB8, symBinAddr: 0x100007BF8, symSize: 0x38 }
  - { offsetInCU: 0xBE47, offset: 0xBE47, size: 0x8, addend: 0x0, symName: __ZNSt3__114__rewrap_rangeB7v160006IPPlS2_EET_S3_T0_, symObjAddr: 0x5CF0, symBinAddr: 0x100007C30, symSize: 0x2C }
  - { offsetInCU: 0xBE93, offset: 0xBE93, size: 0x8, addend: 0x0, symName: __ZNSt3__113__rewrap_iterB7v160006IPPlS2_NS_18__unwrap_iter_implIS2_Lb1EEEEET_S5_T0_, symObjAddr: 0x5D1C, symBinAddr: 0x100007C5C, symSize: 0x3C }
  - { offsetInCU: 0xBEE8, offset: 0xBEE8, size: 0x8, addend: 0x0, symName: __ZNSt3__119__copy_trivial_implB7v160006IPlS1_EENS_4pairIPT_PT0_EES4_S4_S6_, symObjAddr: 0x5D58, symBinAddr: 0x100007C98, symSize: 0x84 }
  - { offsetInCU: 0xBF50, offset: 0xBF50, size: 0x8, addend: 0x0, symName: __ZNSt3__19make_pairB7v160006IRPPlS2_EENS_4pairINS_18__unwrap_ref_decayIT_E4typeENS5_IT0_E4typeEEEOS6_OS9_, symObjAddr: 0x5DDC, symBinAddr: 0x100007D1C, symSize: 0x38 }
  - { offsetInCU: 0xBFF2, offset: 0xBFF2, size: 0x8, addend: 0x0, symName: __ZNSt3__18distanceB7v160006INS_13move_iteratorIPPlEEEENS_15iterator_traitsIT_E15difference_typeES6_S6_, symObjAddr: 0x5F68, symBinAddr: 0x100007EA8, symSize: 0x3C }
  - { offsetInCU: 0xC035, offset: 0xC035, size: 0x8, addend: 0x0, symName: __ZNSt3__110__distanceB7v160006INS_13move_iteratorIPPlEEEENS_15iterator_traitsIT_E15difference_typeES6_S6_NS_26random_access_iterator_tagE, symObjAddr: 0x60A0, symBinAddr: 0x100007FE0, symSize: 0x30 }
  - { offsetInCU: 0xC082, offset: 0xC082, size: 0x8, addend: 0x0, symName: __ZNSt3__1miB7v160006IPPlS2_EEDTmicldtfp_4baseEcldtfp0_4baseEERKNS_13move_iteratorIT_EERKNS4_IT0_EE, symObjAddr: 0x60D0, symBinAddr: 0x100008010, symSize: 0x48 }
  - { offsetInCU: 0xC0D1, offset: 0xC0D1, size: 0x8, addend: 0x0, symName: __ZNSt3__117__libcpp_allocateB7v160006Emm, symObjAddr: 0x62F4, symBinAddr: 0x100008234, symSize: 0x28 }
  - { offsetInCU: 0xC10E, offset: 0xC10E, size: 0x8, addend: 0x0, symName: __ZNSt3__121__libcpp_operator_newB7v160006IJmEEEPvDpT_, symObjAddr: 0x6330, symBinAddr: 0x100008270, symSize: 0x24 }
  - { offsetInCU: 0xC147, offset: 0xC147, size: 0x8, addend: 0x0, symName: __ZNSt3__113move_backwardB7v160006IPPlS2_EET0_T_S4_S3_, symObjAddr: 0x6354, symBinAddr: 0x100008294, symSize: 0x40 }
  - { offsetInCU: 0xC1A1, offset: 0xC1A1, size: 0x8, addend: 0x0, symName: __ZNSt3__115__move_backwardB7v160006INS_17_ClassicAlgPolicyEPPlS3_S3_EENS_4pairIT0_T2_EES5_T1_S6_, symObjAddr: 0x6394, symBinAddr: 0x1000082D4, symSize: 0x44 }
  - { offsetInCU: 0xC20D, offset: 0xC20D, size: 0x8, addend: 0x0, symName: __ZNSt3__123__dispatch_copy_or_moveB7v160006INS_17_ClassicAlgPolicyENS_20__move_backward_loopIS1_EENS_23__move_backward_trivialEPPlS6_S6_EENS_4pairIT2_T4_EES8_T3_S9_, symObjAddr: 0x63D8, symBinAddr: 0x100008318, symSize: 0x44 }
  - { offsetInCU: 0xC28B, offset: 0xC28B, size: 0x8, addend: 0x0, symName: __ZNSt3__121__unwrap_and_dispatchB7v160006INS_10__overloadINS_20__move_backward_loopINS_17_ClassicAlgPolicyEEENS_23__move_backward_trivialEEEPPlS8_S8_Li0EEENS_4pairIT0_T2_EESA_T1_SB_, symObjAddr: 0x641C, symBinAddr: 0x10000835C, symSize: 0xB4 }
  - { offsetInCU: 0xC35F, offset: 0xC35F, size: 0x8, addend: 0x0, symName: __ZNSt3__128__copy_backward_trivial_implB7v160006IPlS1_EENS_4pairIPT_PT0_EES4_S4_S6_, symObjAddr: 0x6518, symBinAddr: 0x100008458, symSize: 0x94 }
  - { offsetInCU: 0xC3C7, offset: 0xC3C7, size: 0x8, addend: 0x0, symName: __ZNSt3__19make_pairB7v160006IRPPlS3_EENS_4pairINS_18__unwrap_ref_decayIT_E4typeENS5_IT0_E4typeEEEOS6_OS9_, symObjAddr: 0x65AC, symBinAddr: 0x1000084EC, symSize: 0x38 }
  - { offsetInCU: 0xC416, offset: 0xC416, size: 0x8, addend: 0x0, symName: __ZNSt3__13maxB7v160006ImNS_6__lessImmEEEERKT_S5_S5_T0_, symObjAddr: 0x6654, symBinAddr: 0x100008594, symSize: 0x54 }
  - { offsetInCU: 0xC4AB, offset: 0xC4AB, size: 0x8, addend: 0x0, symName: __ZNSt3__119__allocate_at_leastB7v160006INS_9allocatorIPlEEEENS_19__allocation_resultINS_16allocator_traitsIT_E7pointerEEERS6_m, symObjAddr: 0x67EC, symBinAddr: 0x10000872C, symSize: 0x40 }
  - { offsetInCU: 0xC4EE, offset: 0xC4EE, size: 0x8, addend: 0x0, symName: __ZNSt3__19push_heapB7v160006INS_11__wrap_iterIPP7ProcessEE22CompareProcessByThreadEEvT_S7_T0_, symObjAddr: 0x6E5C, symBinAddr: 0x100008D9C, symSize: 0x40 }
  - { offsetInCU: 0xC544, offset: 0xC544, size: 0x8, addend: 0x0, symName: __ZNSt3__111__push_heapB7v160006INS_17_ClassicAlgPolicyENS_11__wrap_iterIPP7ProcessEE22CompareProcessByThreadEEvT0_S8_RT1_, symObjAddr: 0x6E9C, symBinAddr: 0x100008DDC, symSize: 0x5C }
  - { offsetInCU: 0xC5B1, offset: 0xC5B1, size: 0x8, addend: 0x0, symName: __ZNSt3__1miB7v160006IPP7ProcessS3_EEDTmicldtfp_4baseEcldtfp0_4baseEERKNS_11__wrap_iterIT_EERKNS5_IT0_EE, symObjAddr: 0x6EF8, symBinAddr: 0x100008E38, symSize: 0x48 }
  - { offsetInCU: 0xC5FD, offset: 0xC5FD, size: 0x8, addend: 0x0, symName: __ZNSt3__19__sift_upB7v160006INS_17_ClassicAlgPolicyER22CompareProcessByThreadNS_11__wrap_iterIPP7ProcessEEEEvT1_S9_OT0_NS_15iterator_traitsIS9_E15difference_typeE, symObjAddr: 0x6F40, symBinAddr: 0x100008E80, symSize: 0x174 }
  - { offsetInCU: 0xC753, offset: 0xC753, size: 0x8, addend: 0x0, symName: __ZNSt3__13minB7v160006ImEERKT_S3_S3_, symObjAddr: 0x7740, symBinAddr: 0x100009680, symSize: 0x2C }
  - { offsetInCU: 0xC997, offset: 0xC997, size: 0x8, addend: 0x0, symName: __ZNSt3__13minB7v160006ImNS_6__lessImmEEEERKT_S5_S5_T0_, symObjAddr: 0x77CC, symBinAddr: 0x10000970C, symSize: 0x54 }
  - { offsetInCU: 0xC9F1, offset: 0xC9F1, size: 0x8, addend: 0x0, symName: __ZNSt3__120__throw_length_errorB7v160006EPKc, symObjAddr: 0x7874, symBinAddr: 0x1000097B4, symSize: 0x64 }
  - { offsetInCU: 0xCA19, offset: 0xCA19, size: 0x8, addend: 0x0, symName: __ZNSt3__119__allocate_at_leastB7v160006INS_9allocatorIP7ProcessEEEENS_19__allocation_resultINS_16allocator_traitsIT_E7pointerEEERS7_m, symObjAddr: 0x7A68, symBinAddr: 0x1000099A8, symSize: 0x40 }
  - { offsetInCU: 0xCA5C, offset: 0xCA5C, size: 0x8, addend: 0x0, symName: __ZNSt3__142__uninitialized_allocator_move_if_noexceptB7v160006INS_9allocatorIP7ProcessEENS_16reverse_iteratorIPS3_EES7_S3_vEET1_RT_T0_SB_S8_, symObjAddr: 0x7C1C, symBinAddr: 0x100009B5C, symSize: 0x78 }
  - { offsetInCU: 0xCAD9, offset: 0xCAD9, size: 0x8, addend: 0x0, symName: __ZNSt3__14swapB7v160006IPP7ProcessEENS_9enable_ifIXaasr21is_move_constructibleIT_EE5valuesr18is_move_assignableIS5_EE5valueEvE4typeERS5_S8_, symObjAddr: 0x7CE0, symBinAddr: 0x100009C20, symSize: 0x3C }
  - { offsetInCU: 0xCB2A, offset: 0xCB2A, size: 0x8, addend: 0x0, symName: __ZNSt3__125__debug_db_invalidate_allB7v160006INS_6vectorIP7ProcessNS_9allocatorIS3_EEEEEEvPT_, symObjAddr: 0x7DC8, symBinAddr: 0x100009D08, symSize: 0x10 }
  - { offsetInCU: 0xCB5B, offset: 0xCB5B, size: 0x8, addend: 0x0, symName: __ZNSt3__14moveB7v160006INS_16reverse_iteratorIPP7ProcessEES5_EET0_T_S7_S6_, symObjAddr: 0x7DD8, symBinAddr: 0x100009D18, symSize: 0x78 }
  - { offsetInCU: 0xCBB5, offset: 0xCBB5, size: 0x8, addend: 0x0, symName: __ZNSt3__16__moveB7v160006INS_17_ClassicAlgPolicyENS_16reverse_iteratorIPP7ProcessEES6_S6_EENS_4pairIT0_T2_EES8_T1_S9_, symObjAddr: 0x7E50, symBinAddr: 0x100009D90, symSize: 0x64 }
  - { offsetInCU: 0xCC21, offset: 0xCC21, size: 0x8, addend: 0x0, symName: __ZNSt3__123__dispatch_copy_or_moveB7v160006INS_17_ClassicAlgPolicyENS_11__move_loopIS1_EENS_14__move_trivialENS_16reverse_iteratorIPP7ProcessEES9_S9_EENS_4pairIT2_T4_EESB_T3_SC_, symObjAddr: 0x7EB4, symBinAddr: 0x100009DF4, symSize: 0x64 }
  - { offsetInCU: 0xCC9F, offset: 0xCC9F, size: 0x8, addend: 0x0, symName: __ZNSt3__121__unwrap_and_dispatchB7v160006INS_10__overloadINS_11__move_loopINS_17_ClassicAlgPolicyEEENS_14__move_trivialEEENS_16reverse_iteratorIPP7ProcessEESB_SB_Li0EEENS_4pairIT0_T2_EESD_T1_SE_, symObjAddr: 0x7F18, symBinAddr: 0x100009E58, symSize: 0x12C }
  - { offsetInCU: 0xCD2F, offset: 0xCD2F, size: 0x8, addend: 0x0, symName: __ZNSt3__114__unwrap_rangeB7v160006INS_16reverse_iteratorIPP7ProcessEES5_EENS_4pairIT0_S7_EET_S9_, symObjAddr: 0x8044, symBinAddr: 0x100009F84, symSize: 0x84 }
  - { offsetInCU: 0xCEA1, offset: 0xCEA1, size: 0x8, addend: 0x0, symName: __ZNSt3__113__unwrap_iterB7v160006INS_16reverse_iteratorIPP7ProcessEENS_18__unwrap_iter_implIS5_Lb0EEELi0EEEDTclsrT0_8__unwrapclsr3stdE7declvalIT_EEEES9_, symObjAddr: 0x8168, symBinAddr: 0x10000A0A8, symSize: 0x44 }
  - { offsetInCU: 0xCEE5, offset: 0xCEE5, size: 0x8, addend: 0x0, symName: __ZNSt3__19make_pairB7v160006INS_16reverse_iteratorIPP7ProcessEES5_EENS_4pairINS_18__unwrap_ref_decayIT_E4typeENS7_IT0_E4typeEEEOS8_OSB_, symObjAddr: 0x81AC, symBinAddr: 0x10000A0EC, symSize: 0x38 }
  - { offsetInCU: 0xCF34, offset: 0xCF34, size: 0x8, addend: 0x0, symName: __ZNSt3__114__rewrap_rangeB7v160006INS_16reverse_iteratorIPP7ProcessEES5_EET_S6_T0_, symObjAddr: 0x81E4, symBinAddr: 0x10000A124, symSize: 0x5C }
  - { offsetInCU: 0xCF80, offset: 0xCF80, size: 0x8, addend: 0x0, symName: __ZNSt3__113__rewrap_iterB7v160006INS_16reverse_iteratorIPP7ProcessEES5_NS_18__unwrap_iter_implIS5_Lb0EEEEET_S8_T0_, symObjAddr: 0x8240, symBinAddr: 0x10000A180, symSize: 0x74 }
  - { offsetInCU: 0xCFD5, offset: 0xCFD5, size: 0x8, addend: 0x0, symName: __ZNSt3__1neB7v160006IPP7ProcessS3_EEbRKNS_16reverse_iteratorIT_EERKNS4_IT0_EE, symObjAddr: 0x82B4, symBinAddr: 0x10000A1F4, symSize: 0x48 }
  - { offsetInCU: 0xD069, offset: 0xD069, size: 0x8, addend: 0x0, symName: __ZNSt3__18pop_heapB7v160006INS_11__wrap_iterIPP7ProcessEE20CompareProcessByTimeEEvT_S7_T0_, symObjAddr: 0x8684, symBinAddr: 0x10000A5C4, symSize: 0x58 }
  - { offsetInCU: 0xD0CD, offset: 0xD0CD, size: 0x8, addend: 0x0, symName: __ZNSt3__110__pop_heapB7v160006INS_17_ClassicAlgPolicyE20CompareProcessByTimeNS_11__wrap_iterIPP7ProcessEEEEvT1_S8_RT0_NS_15iterator_traitsIS8_E15difference_typeE, symObjAddr: 0x8708, symBinAddr: 0x10000A648, symSize: 0x144 }
  - { offsetInCU: 0xD17D, offset: 0xD17D, size: 0x8, addend: 0x0, symName: __ZNSt3__19__sift_upB7v160006INS_17_ClassicAlgPolicyER20CompareProcessByTimeNS_11__wrap_iterIPP7ProcessEEEEvT1_S9_OT0_NS_15iterator_traitsIS9_E15difference_typeE, symObjAddr: 0x89A0, symBinAddr: 0x10000A8E0, symSize: 0x174 }
  - { offsetInCU: 0xD22D, offset: 0xD22D, size: 0x8, addend: 0x0, symName: __ZNSt3__112__to_addressB7v160006IlEEPT_S2_, symObjAddr: 0x8D9C, symBinAddr: 0x10000ACDC, symSize: 0x14 }
  - { offsetInCU: 0xD262, offset: 0xD262, size: 0x8, addend: 0x0, symName: __ZNSt3__19push_heapB7v160006INS_11__wrap_iterIPP7ProcessEE20CompareProcessByTimeEEvT_S7_T0_, symObjAddr: 0x8EB8, symBinAddr: 0x10000ADF8, symSize: 0x40 }
  - { offsetInCU: 0xD2B8, offset: 0xD2B8, size: 0x8, addend: 0x0, symName: __ZNSt3__111__push_heapB7v160006INS_17_ClassicAlgPolicyENS_11__wrap_iterIPP7ProcessEE20CompareProcessByTimeEEvT0_S8_RT1_, symObjAddr: 0x8EF8, symBinAddr: 0x10000AE38, symSize: 0x5C }
  - { offsetInCU: 0xD325, offset: 0xD325, size: 0x8, addend: 0x0, symName: __ZNSt3__18pop_heapB7v160006INS_11__wrap_iterIPP7ProcessEE22CompareProcessByThreadEEvT_S7_T0_, symObjAddr: 0x8F54, symBinAddr: 0x10000AE94, symSize: 0x58 }
  - { offsetInCU: 0xD389, offset: 0xD389, size: 0x8, addend: 0x0, symName: __ZNSt3__110__pop_heapB7v160006INS_17_ClassicAlgPolicyE22CompareProcessByThreadNS_11__wrap_iterIPP7ProcessEEEEvT1_S8_RT0_NS_15iterator_traitsIS8_E15difference_typeE, symObjAddr: 0x8FAC, symBinAddr: 0x10000AEEC, symSize: 0x144 }
  - { offsetInCU: 0xD814, offset: 0xD814, size: 0x8, addend: 0x0, symName: __ZSt28__throw_bad_array_new_lengthB7v160006v, symObjAddr: 0x62C0, symBinAddr: 0x100008200, symSize: 0x34 }
  - { offsetInCU: 0xE009, offset: 0xE009, size: 0x8, addend: 0x0, symName: __ZNSt3__16vectorIP7ProcessNS_9allocatorIS2_EEE26__swap_out_circular_bufferERNS_14__split_bufferIS2_RS4_EE, symObjAddr: 0x7580, symBinAddr: 0x1000094C0, symSize: 0x118 }
  - { offsetInCU: 0x10355, offset: 0x10355, size: 0x8, addend: 0x0, symName: _main, symObjAddr: 0x0, symBinAddr: 0x100001F40, symSize: 0x868 }
  - { offsetInCU: 0x10664, offset: 0x10664, size: 0x8, addend: 0x0, symName: __ZNSt3__114basic_ifstreamIcNS_11char_traitsIcEEEC1Ev, symObjAddr: 0x868, symBinAddr: 0x1000027A8, symSize: 0xE8 }
  - { offsetInCU: 0x106AA, offset: 0x106AA, size: 0x8, addend: 0x0, symName: __ZNSt3__114basic_ofstreamIcNS_11char_traitsIcEEEC1Ev, symObjAddr: 0x950, symBinAddr: 0x100002890, symSize: 0xE8 }
  - { offsetInCU: 0x1075C, offset: 0x1075C, size: 0x8, addend: 0x0, symName: __ZNSt3__114priority_queueIP7ProcessNS_6vectorIS2_NS_9allocatorIS2_EEEE22CompareProcessByThreadEC1B7v160006Ev, symObjAddr: 0xA38, symBinAddr: 0x100002978, symSize: 0x2C }
  - { offsetInCU: 0x10802, offset: 0x10802, size: 0x8, addend: 0x0, symName: __ZNSt3__114priority_queueIP7ProcessNS_6vectorIS2_NS_9allocatorIS2_EEEE20CompareProcessByTimeEC1B7v160006Ev, symObjAddr: 0xA64, symBinAddr: 0x1000029A4, symSize: 0x2C }
  - { offsetInCU: 0x1082C, offset: 0x1082C, size: 0x8, addend: 0x0, symName: __ZNSt3__112basic_stringIcNS_11char_traitsIcEENS_9allocatorIcEEEC1B7v160006Ev, symObjAddr: 0xAD4, symBinAddr: 0x100002A14, symSize: 0x2C }
  - { offsetInCU: 0x10895, offset: 0x10895, size: 0x8, addend: 0x0, symName: __ZNSt3__15queueIlNS_5dequeIlNS_9allocatorIlEEEEEC1B7v160006Ev, symObjAddr: 0xB00, symBinAddr: 0x100002A40, symSize: 0x2C }
  - { offsetInCU: 0x108BF, offset: 0x108BF, size: 0x8, addend: 0x0, symName: __ZNSt3__16vectorIP7ProcessNS_9allocatorIS2_EEEC1B7v160006Ev, symObjAddr: 0xB2C, symBinAddr: 0x100002A6C, symSize: 0x2C }
  - { offsetInCU: 0x108E9, offset: 0x108E9, size: 0x8, addend: 0x0, symName: __ZNKSt3__19basic_iosIcNS_11char_traitsIcEEEcvbB7v160006Ev, symObjAddr: 0xBB4, symBinAddr: 0x100002AF4, symSize: 0x2C }
  - { offsetInCU: 0x10961, offset: 0x10961, size: 0x8, addend: 0x0, symName: __ZNSt3__119basic_istringstreamIcNS_11char_traitsIcEENS_9allocatorIcEEEC1B7v160006ERKNS_12basic_stringIcS2_S4_EEj, symObjAddr: 0xBE0, symBinAddr: 0x100002B20, symSize: 0xFC }
  - { offsetInCU: 0x109A9, offset: 0x109A9, size: 0x8, addend: 0x0, symName: __ZNSt3__113basic_ostreamIcNS_11char_traitsIcEEElsB7v160006EPFRS3_S4_E, symObjAddr: 0xD24, symBinAddr: 0x100002C64, symSize: 0x2C }
  - { offsetInCU: 0x109DD, offset: 0x109DD, size: 0x8, addend: 0x0, symName: __ZNSt3__15queueIlNS_5dequeIlNS_9allocatorIlEEEEE4pushB7v160006EOl, symObjAddr: 0xDA8, symBinAddr: 0x100002CE8, symSize: 0x2C }
  - { offsetInCU: 0x10A17, offset: 0x10A17, size: 0x8, addend: 0x0, symName: __ZNSt3__119basic_istringstreamIcNS_11char_traitsIcEENS_9allocatorIcEEED1Ev, symObjAddr: 0xDD4, symBinAddr: 0x100002D14, symSize: 0x40 }
  - { offsetInCU: 0x10A44, offset: 0x10A44, size: 0x8, addend: 0x0, symName: __ZN7ProcessC1Ei, symObjAddr: 0xE14, symBinAddr: 0x100002D54, symSize: 0x34 }
  - { offsetInCU: 0x10A7C, offset: 0x10A7C, size: 0x8, addend: 0x0, symName: __ZNSt3__114priority_queueIP7ProcessNS_6vectorIS2_NS_9allocatorIS2_EEEE22CompareProcessByThreadE4pushERKS2_, symObjAddr: 0xE48, symBinAddr: 0x100002D88, symSize: 0x58 }
  - { offsetInCU: 0x10AB3, offset: 0x10AB3, size: 0x8, addend: 0x0, symName: __ZNSt3__16vectorIP7ProcessNS_9allocatorIS2_EEE9push_backB7v160006ERKS2_, symObjAddr: 0xEA0, symBinAddr: 0x100002DE0, symSize: 0x6C }
  - { offsetInCU: 0x10AEA, offset: 0x10AEA, size: 0x8, addend: 0x0, symName: __ZNKSt3__114priority_queueIP7ProcessNS_6vectorIS2_NS_9allocatorIS2_EEEE20CompareProcessByTimeE5emptyB7v160006Ev, symObjAddr: 0xF4C, symBinAddr: 0x100002E8C, symSize: 0x28 }
  - { offsetInCU: 0x10B10, offset: 0x10B10, size: 0x8, addend: 0x0, symName: __ZNKSt3__114priority_queueIP7ProcessNS_6vectorIS2_NS_9allocatorIS2_EEEE20CompareProcessByTimeE3topB7v160006Ev, symObjAddr: 0xF74, symBinAddr: 0x100002EB4, symSize: 0x24 }
  - { offsetInCU: 0x10B36, offset: 0x10B36, size: 0x8, addend: 0x0, symName: __ZNSt3__114priority_queueIP7ProcessNS_6vectorIS2_NS_9allocatorIS2_EEEE20CompareProcessByTimeE3popEv, symObjAddr: 0xF98, symBinAddr: 0x100002ED8, symSize: 0x50 }
  - { offsetInCU: 0x10B5E, offset: 0x10B5E, size: 0x8, addend: 0x0, symName: __ZNSt3__16vectorIP7ProcessNS_9allocatorIS2_EEEixB7v160006Em, symObjAddr: 0xFE8, symBinAddr: 0x100002F28, symSize: 0x24 }
  - { offsetInCU: 0x10B95, offset: 0x10B95, size: 0x8, addend: 0x0, symName: __ZN7Process9resetTimeEv, symObjAddr: 0x100C, symBinAddr: 0x100002F4C, symSize: 0x24 }
  - { offsetInCU: 0x10BBB, offset: 0x10BBB, size: 0x8, addend: 0x0, symName: __ZNKSt3__114priority_queueIP7ProcessNS_6vectorIS2_NS_9allocatorIS2_EEEE22CompareProcessByThreadE5emptyB7v160006Ev, symObjAddr: 0x1030, symBinAddr: 0x100002F70, symSize: 0x28 }
  - { offsetInCU: 0x10BE1, offset: 0x10BE1, size: 0x8, addend: 0x0, symName: __ZNKSt3__114priority_queueIP7ProcessNS_6vectorIS2_NS_9allocatorIS2_EEEE22CompareProcessByThreadE3topB7v160006Ev, symObjAddr: 0x1058, symBinAddr: 0x100002F98, symSize: 0x24 }
  - { offsetInCU: 0x10C07, offset: 0x10C07, size: 0x8, addend: 0x0, symName: __ZNKSt3__15queueIlNS_5dequeIlNS_9allocatorIlEEEEE5emptyB7v160006Ev, symObjAddr: 0x107C, symBinAddr: 0x100002FBC, symSize: 0x28 }
  - { offsetInCU: 0x10C2D, offset: 0x10C2D, size: 0x8, addend: 0x0, symName: __ZN7Process10assignTimeEl, symObjAddr: 0x10A4, symBinAddr: 0x100002FE4, symSize: 0x28 }
  - { offsetInCU: 0x10C61, offset: 0x10C61, size: 0x8, addend: 0x0, symName: __ZNSt3__15queueIlNS_5dequeIlNS_9allocatorIlEEEEE5frontB7v160006Ev, symObjAddr: 0x10CC, symBinAddr: 0x10000300C, symSize: 0x24 }
  - { offsetInCU: 0x10C87, offset: 0x10C87, size: 0x8, addend: 0x0, symName: __ZN7Process12newStartTimeEl, symObjAddr: 0x10F0, symBinAddr: 0x100003030, symSize: 0x28 }
  - { offsetInCU: 0x10CBB, offset: 0x10CBB, size: 0x8, addend: 0x0, symName: __ZNSt3__15queueIlNS_5dequeIlNS_9allocatorIlEEEEE3popB7v160006Ev, symObjAddr: 0x1118, symBinAddr: 0x100003058, symSize: 0x24 }
  - { offsetInCU: 0x10CE1, offset: 0x10CE1, size: 0x8, addend: 0x0, symName: __ZNSt3__114priority_queueIP7ProcessNS_6vectorIS2_NS_9allocatorIS2_EEEE20CompareProcessByTimeE4pushERKS2_, symObjAddr: 0x113C, symBinAddr: 0x10000307C, symSize: 0x58 }
  - { offsetInCU: 0x10D18, offset: 0x10D18, size: 0x8, addend: 0x0, symName: __ZNSt3__114priority_queueIP7ProcessNS_6vectorIS2_NS_9allocatorIS2_EEEE22CompareProcessByThreadE3popEv, symObjAddr: 0x1194, symBinAddr: 0x1000030D4, symSize: 0x50 }
  - { offsetInCU: 0x10D40, offset: 0x10D40, size: 0x8, addend: 0x0, symName: __ZN7Process14updateTimeLeftEv, symObjAddr: 0x11E4, symBinAddr: 0x100003124, symSize: 0x30 }
  - { offsetInCU: 0x10D66, offset: 0x10D66, size: 0x8, addend: 0x0, symName: __ZNSt3__16vectorIP7ProcessNS_9allocatorIS2_EEE5beginB7v160006Ev, symObjAddr: 0x1214, symBinAddr: 0x100003154, symSize: 0x30 }
  - { offsetInCU: 0x10D8E, offset: 0x10D8E, size: 0x8, addend: 0x0, symName: __ZNSt3__16vectorIP7ProcessNS_9allocatorIS2_EEE3endB7v160006Ev, symObjAddr: 0x1244, symBinAddr: 0x100003184, symSize: 0x30 }
  - { offsetInCU: 0x10DB6, offset: 0x10DB6, size: 0x8, addend: 0x0, symName: __ZNKSt3__111__wrap_iterIPP7ProcessEdeB7v160006Ev, symObjAddr: 0x12A8, symBinAddr: 0x1000031E8, symSize: 0x18 }
  - { offsetInCU: 0x10DDC, offset: 0x10DDC, size: 0x8, addend: 0x0, symName: __ZNSt3__111__wrap_iterIPP7ProcessEppB7v160006Ev, symObjAddr: 0x12C0, symBinAddr: 0x100003200, symSize: 0x20 }
  - { offsetInCU: 0x10E02, offset: 0x10E02, size: 0x8, addend: 0x0, symName: __ZNSt3__114basic_ofstreamIcNS_11char_traitsIcEEE5closeEv, symObjAddr: 0x12E0, symBinAddr: 0x100003220, symSize: 0x58 }
  - { offsetInCU: 0x10E2A, offset: 0x10E2A, size: 0x8, addend: 0x0, symName: __ZNSt3__114basic_ifstreamIcNS_11char_traitsIcEEE5closeEv, symObjAddr: 0x1338, symBinAddr: 0x100003278, symSize: 0x58 }
  - { offsetInCU: 0x10E52, offset: 0x10E52, size: 0x8, addend: 0x0, symName: __ZNSt3__16vectorIP7ProcessNS_9allocatorIS2_EEED1B7v160006Ev, symObjAddr: 0x1390, symBinAddr: 0x1000032D0, symSize: 0x2C }
  - { offsetInCU: 0x10E7C, offset: 0x10E7C, size: 0x8, addend: 0x0, symName: __ZNSt3__15queueIlNS_5dequeIlNS_9allocatorIlEEEEED1Ev, symObjAddr: 0x13BC, symBinAddr: 0x1000032FC, symSize: 0x2C }
  - { offsetInCU: 0x10EA9, offset: 0x10EA9, size: 0x8, addend: 0x0, symName: __ZNSt3__114priority_queueIP7ProcessNS_6vectorIS2_NS_9allocatorIS2_EEEE20CompareProcessByTimeED1Ev, symObjAddr: 0x13E8, symBinAddr: 0x100003328, symSize: 0x2C }
  - { offsetInCU: 0x10ED6, offset: 0x10ED6, size: 0x8, addend: 0x0, symName: __ZNSt3__114priority_queueIP7ProcessNS_6vectorIS2_NS_9allocatorIS2_EEEE22CompareProcessByThreadED1Ev, symObjAddr: 0x1414, symBinAddr: 0x100003354, symSize: 0x2C }
  - { offsetInCU: 0x10F08, offset: 0x10F08, size: 0x8, addend: 0x0, symName: __ZNSt3__114basic_ofstreamIcNS_11char_traitsIcEEED1Ev, symObjAddr: 0x1440, symBinAddr: 0x100003380, symSize: 0x40 }
  - { offsetInCU: 0x10F3A, offset: 0x10F3A, size: 0x8, addend: 0x0, symName: __ZNSt3__114basic_ifstreamIcNS_11char_traitsIcEEED1Ev, symObjAddr: 0x1480, symBinAddr: 0x1000033C0, symSize: 0x40 }
  - { offsetInCU: 0x10F67, offset: 0x10F67, size: 0x8, addend: 0x0, symName: __ZNSt3__119basic_istringstreamIcNS_11char_traitsIcEENS_9allocatorIcEEED2Ev, symObjAddr: 0x14C0, symBinAddr: 0x100003400, symSize: 0x64 }
  - { offsetInCU: 0x10FA1, offset: 0x10FA1, size: 0x8, addend: 0x0, symName: __ZTv0_n24_NSt3__119basic_istringstreamIcNS_11char_traitsIcEENS_9allocatorIcEEED1Ev, symObjAddr: 0x1524, symBinAddr: 0x100003464, symSize: 0x28 }
  - { offsetInCU: 0x10FBD, offset: 0x10FBD, size: 0x8, addend: 0x0, symName: __ZNSt3__115basic_stringbufIcNS_11char_traitsIcEENS_9allocatorIcEEED1Ev, symObjAddr: 0x154C, symBinAddr: 0x10000348C, symSize: 0x2C }
  - { offsetInCU: 0x10FEA, offset: 0x10FEA, size: 0x8, addend: 0x0, symName: __ZNSt3__115basic_stringbufIcNS_11char_traitsIcEENS_9allocatorIcEEED2Ev, symObjAddr: 0x1578, symBinAddr: 0x1000034B8, symSize: 0x48 }
  - { offsetInCU: 0x11017, offset: 0x11017, size: 0x8, addend: 0x0, symName: __ZN7ProcessC2Ei, symObjAddr: 0x15C0, symBinAddr: 0x100003500, symSize: 0x34 }
  - { offsetInCU: 0x1104F, offset: 0x1104F, size: 0x8, addend: 0x0, symName: __ZNKSt3__111__wrap_iterIPP7ProcessE4baseB7v160006Ev, symObjAddr: 0x163C, symBinAddr: 0x10000357C, symSize: 0x18 }
  - { offsetInCU: 0x11075, offset: 0x11075, size: 0x8, addend: 0x0, symName: __ZNSt3__15queueIlNS_5dequeIlNS_9allocatorIlEEEEED2Ev, symObjAddr: 0x1654, symBinAddr: 0x100003594, symSize: 0x2C }
  - { offsetInCU: 0x110A2, offset: 0x110A2, size: 0x8, addend: 0x0, symName: __ZNSt3__15dequeIlNS_9allocatorIlEEED1B7v160006Ev, symObjAddr: 0x1680, symBinAddr: 0x1000035C0, symSize: 0x2C }
  - { offsetInCU: 0x110CC, offset: 0x110CC, size: 0x8, addend: 0x0, symName: __ZNSt3__15dequeIlNS_9allocatorIlEEED2B7v160006Ev, symObjAddr: 0x16AC, symBinAddr: 0x1000035EC, symSize: 0x9C }
  - { offsetInCU: 0x11122, offset: 0x11122, size: 0x8, addend: 0x0, symName: __ZNSt3__15dequeIlNS_9allocatorIlEEE5clearEv, symObjAddr: 0x1748, symBinAddr: 0x100003688, symSize: 0x180 }
  - { offsetInCU: 0x1117D, offset: 0x1117D, size: 0x8, addend: 0x0, symName: __ZNSt3__114__split_bufferIPlNS_9allocatorIS1_EEE5beginB7v160006Ev, symObjAddr: 0x18C8, symBinAddr: 0x100003808, symSize: 0x18 }
  - { offsetInCU: 0x111A3, offset: 0x111A3, size: 0x8, addend: 0x0, symName: __ZNSt3__114__split_bufferIPlNS_9allocatorIS1_EEE3endB7v160006Ev, symObjAddr: 0x18E0, symBinAddr: 0x100003820, symSize: 0x18 }
  - { offsetInCU: 0x111C9, offset: 0x111C9, size: 0x8, addend: 0x0, symName: __ZNSt3__116allocator_traitsINS_9allocatorIlEEE10deallocateB7v160006ERS2_Plm, symObjAddr: 0x18F8, symBinAddr: 0x100003838, symSize: 0x34 }
  - { offsetInCU: 0x1120B, offset: 0x1120B, size: 0x8, addend: 0x0, symName: __ZNSt3__15dequeIlNS_9allocatorIlEEE7__allocB7v160006Ev, symObjAddr: 0x192C, symBinAddr: 0x10000386C, symSize: 0x28 }
  - { offsetInCU: 0x11231, offset: 0x11231, size: 0x8, addend: 0x0, symName: __ZNSt3__114__split_bufferIPlNS_9allocatorIS1_EEED1Ev, symObjAddr: 0x1954, symBinAddr: 0x100003894, symSize: 0x2C }
  - { offsetInCU: 0x1125D, offset: 0x1125D, size: 0x8, addend: 0x0, symName: __ZNSt3__15dequeIlNS_9allocatorIlEEE5beginB7v160006Ev, symObjAddr: 0x1980, symBinAddr: 0x1000038C0, symSize: 0xB8 }
  - { offsetInCU: 0x11292, offset: 0x11292, size: 0x8, addend: 0x0, symName: __ZNSt3__15dequeIlNS_9allocatorIlEEE3endB7v160006Ev, symObjAddr: 0x1A38, symBinAddr: 0x100003978, symSize: 0xBC }
  - { offsetInCU: 0x112D6, offset: 0x112D6, size: 0x8, addend: 0x0, symName: __ZNSt3__116allocator_traitsINS_9allocatorIlEEE7destroyB7v160006IlvEEvRS2_PT_, symObjAddr: 0x1B34, symBinAddr: 0x100003A74, symSize: 0x2C }
  - { offsetInCU: 0x11313, offset: 0x11313, size: 0x8, addend: 0x0, symName: __ZNKSt3__116__deque_iteratorIlPlRlPS1_lLl512EEdeB7v160006Ev, symObjAddr: 0x1B60, symBinAddr: 0x100003AA0, symSize: 0x18 }
  - { offsetInCU: 0x11339, offset: 0x11339, size: 0x8, addend: 0x0, symName: __ZNSt3__116__deque_iteratorIlPlRlPS1_lLl512EEppB7v160006Ev, symObjAddr: 0x1B78, symBinAddr: 0x100003AB8, symSize: 0x70 }
  - { offsetInCU: 0x1135F, offset: 0x1135F, size: 0x8, addend: 0x0, symName: __ZNSt3__15dequeIlNS_9allocatorIlEEE6__sizeB7v160006Ev, symObjAddr: 0x1BE8, symBinAddr: 0x100003B28, symSize: 0x28 }
  - { offsetInCU: 0x11385, offset: 0x11385, size: 0x8, addend: 0x0, symName: __ZNKSt3__114__split_bufferIPlNS_9allocatorIS1_EEE4sizeB7v160006Ev, symObjAddr: 0x1C10, symBinAddr: 0x100003B50, symSize: 0x28 }
  - { offsetInCU: 0x113AB, offset: 0x113AB, size: 0x8, addend: 0x0, symName: __ZNSt3__114__split_bufferIPlNS_9allocatorIS1_EEE5frontB7v160006Ev, symObjAddr: 0x1C38, symBinAddr: 0x100003B78, symSize: 0x18 }
  - { offsetInCU: 0x113D1, offset: 0x113D1, size: 0x8, addend: 0x0, symName: __ZNSt3__114__split_bufferIPlNS_9allocatorIS1_EEE9pop_frontB7v160006Ev, symObjAddr: 0x1C50, symBinAddr: 0x100003B90, symSize: 0x2C }
  - { offsetInCU: 0x113F7, offset: 0x113F7, size: 0x8, addend: 0x0, symName: __ZNKSt3__114__split_bufferIPlNS_9allocatorIS1_EEE5emptyB7v160006Ev, symObjAddr: 0x1C7C, symBinAddr: 0x100003BBC, symSize: 0x28 }
  - { offsetInCU: 0x1141D, offset: 0x1141D, size: 0x8, addend: 0x0, symName: __ZNSt3__116__deque_iteratorIlPlRlPS1_lLl512EEC1B7v160006ES3_S1_, symObjAddr: 0x1CA4, symBinAddr: 0x100003BE4, symSize: 0x3C }
  - { offsetInCU: 0x11465, offset: 0x11465, size: 0x8, addend: 0x0, symName: __ZNSt3__116__deque_iteratorIlPlRlPS1_lLl512EEC2B7v160006ES3_S1_, symObjAddr: 0x1CE0, symBinAddr: 0x100003C20, symSize: 0x2C }
  - { offsetInCU: 0x114AD, offset: 0x114AD, size: 0x8, addend: 0x0, symName: __ZNKSt3__15dequeIlNS_9allocatorIlEEE4sizeB7v160006Ev, symObjAddr: 0x1D0C, symBinAddr: 0x100003C4C, symSize: 0x28 }
  - { offsetInCU: 0x114D3, offset: 0x114D3, size: 0x8, addend: 0x0, symName: __ZNKSt3__15dequeIlNS_9allocatorIlEEE6__sizeB7v160006Ev, symObjAddr: 0x1D34, symBinAddr: 0x100003C74, symSize: 0x28 }
  - { offsetInCU: 0x114F9, offset: 0x114F9, size: 0x8, addend: 0x0, symName: __ZNKSt3__117__compressed_pairImNS_9allocatorIlEEE5firstB7v160006Ev, symObjAddr: 0x1D5C, symBinAddr: 0x100003C9C, symSize: 0x24 }
  - { offsetInCU: 0x1151F, offset: 0x1151F, size: 0x8, addend: 0x0, symName: __ZNKSt3__122__compressed_pair_elemImLi0ELb0EE5__getB7v160006Ev, symObjAddr: 0x1D80, symBinAddr: 0x100003CC0, symSize: 0x14 }
  - { offsetInCU: 0x11545, offset: 0x11545, size: 0x8, addend: 0x0, symName: __ZNSt3__19allocatorIlE7destroyB7v160006EPl, symObjAddr: 0x1DC4, symBinAddr: 0x100003D04, symSize: 0x14 }
  - { offsetInCU: 0x11579, offset: 0x11579, size: 0x8, addend: 0x0, symName: __ZNSt3__117__compressed_pairImNS_9allocatorIlEEE5firstB7v160006Ev, symObjAddr: 0x1DD8, symBinAddr: 0x100003D18, symSize: 0x24 }
  - { offsetInCU: 0x1159F, offset: 0x1159F, size: 0x8, addend: 0x0, symName: __ZNSt3__122__compressed_pair_elemImLi0ELb0EE5__getB7v160006Ev, symObjAddr: 0x1DFC, symBinAddr: 0x100003D3C, symSize: 0x14 }
  - { offsetInCU: 0x115C5, offset: 0x115C5, size: 0x8, addend: 0x0, symName: __ZNSt3__114__split_bufferIPlNS_9allocatorIS1_EEE19__destruct_at_beginB7v160006EPS1_, symObjAddr: 0x1E10, symBinAddr: 0x100003D50, symSize: 0x2C }
  - { offsetInCU: 0x115F9, offset: 0x115F9, size: 0x8, addend: 0x0, symName: __ZNSt3__114__split_bufferIPlNS_9allocatorIS1_EEE19__destruct_at_beginEPS1_NS_17integral_constantIbLb1EEE, symObjAddr: 0x1E3C, symBinAddr: 0x100003D7C, symSize: 0x20 }
  - { offsetInCU: 0x11639, offset: 0x11639, size: 0x8, addend: 0x0, symName: __ZNSt3__19allocatorIlE10deallocateB7v160006EPlm, symObjAddr: 0x1E5C, symBinAddr: 0x100003D9C, symSize: 0x40 }
  - { offsetInCU: 0x1167B, offset: 0x1167B, size: 0x8, addend: 0x0, symName: __ZNSt3__117__compressed_pairImNS_9allocatorIlEEE6secondB7v160006Ev, symObjAddr: 0x1F18, symBinAddr: 0x100003E58, symSize: 0x24 }
  - { offsetInCU: 0x116A1, offset: 0x116A1, size: 0x8, addend: 0x0, symName: __ZNSt3__122__compressed_pair_elemINS_9allocatorIlEELi1ELb1EE5__getB7v160006Ev, symObjAddr: 0x1F3C, symBinAddr: 0x100003E7C, symSize: 0x14 }
  - { offsetInCU: 0x116C7, offset: 0x116C7, size: 0x8, addend: 0x0, symName: __ZNSt3__114__split_bufferIPlNS_9allocatorIS1_EEED2Ev, symObjAddr: 0x1F50, symBinAddr: 0x100003E90, symSize: 0x8C }
  - { offsetInCU: 0x116F3, offset: 0x116F3, size: 0x8, addend: 0x0, symName: __ZNSt3__114__split_bufferIPlNS_9allocatorIS1_EEE5clearB7v160006Ev, symObjAddr: 0x1FDC, symBinAddr: 0x100003F1C, symSize: 0x28 }
  - { offsetInCU: 0x11719, offset: 0x11719, size: 0x8, addend: 0x0, symName: __ZNSt3__116allocator_traitsINS_9allocatorIPlEEE10deallocateB7v160006ERS3_PS2_m, symObjAddr: 0x2004, symBinAddr: 0x100003F44, symSize: 0x34 }
  - { offsetInCU: 0x1175B, offset: 0x1175B, size: 0x8, addend: 0x0, symName: __ZNSt3__114__split_bufferIPlNS_9allocatorIS1_EEE7__allocB7v160006Ev, symObjAddr: 0x2038, symBinAddr: 0x100003F78, symSize: 0x28 }
  - { offsetInCU: 0x11781, offset: 0x11781, size: 0x8, addend: 0x0, symName: __ZNKSt3__114__split_bufferIPlNS_9allocatorIS1_EEE8capacityB7v160006Ev, symObjAddr: 0x2060, symBinAddr: 0x100003FA0, symSize: 0x40 }
  - { offsetInCU: 0x117A7, offset: 0x117A7, size: 0x8, addend: 0x0, symName: __ZNSt3__114__split_bufferIPlNS_9allocatorIS1_EEE17__destruct_at_endB7v160006EPS1_, symObjAddr: 0x20A0, symBinAddr: 0x100003FE0, symSize: 0x2C }
  - { offsetInCU: 0x117DB, offset: 0x117DB, size: 0x8, addend: 0x0, symName: __ZNSt3__114__split_bufferIPlNS_9allocatorIS1_EEE17__destruct_at_endB7v160006EPS1_NS_17integral_constantIbLb0EEE, symObjAddr: 0x20CC, symBinAddr: 0x10000400C, symSize: 0x80 }
  - { offsetInCU: 0x1181B, offset: 0x1181B, size: 0x8, addend: 0x0, symName: __ZNSt3__116allocator_traitsINS_9allocatorIPlEEE7destroyB7v160006IS2_vEEvRS3_PT_, symObjAddr: 0x214C, symBinAddr: 0x10000408C, symSize: 0x2C }
  - { offsetInCU: 0x11858, offset: 0x11858, size: 0x8, addend: 0x0, symName: __ZNSt3__19allocatorIPlE7destroyB7v160006EPS1_, symObjAddr: 0x218C, symBinAddr: 0x1000040CC, symSize: 0x14 }
  - { offsetInCU: 0x1188C, offset: 0x1188C, size: 0x8, addend: 0x0, symName: __ZNSt3__19allocatorIPlE10deallocateB7v160006EPS1_m, symObjAddr: 0x21A0, symBinAddr: 0x1000040E0, symSize: 0x40 }
  - { offsetInCU: 0x118CE, offset: 0x118CE, size: 0x8, addend: 0x0, symName: __ZNSt3__117__compressed_pairIPPlNS_9allocatorIS1_EEE6secondB7v160006Ev, symObjAddr: 0x21E0, symBinAddr: 0x100004120, symSize: 0x24 }
  - { offsetInCU: 0x118F4, offset: 0x118F4, size: 0x8, addend: 0x0, symName: __ZNSt3__122__compressed_pair_elemINS_9allocatorIPlEELi1ELb1EE5__getB7v160006Ev, symObjAddr: 0x2204, symBinAddr: 0x100004144, symSize: 0x14 }
  - { offsetInCU: 0x1191A, offset: 0x1191A, size: 0x8, addend: 0x0, symName: __ZNKSt3__114__split_bufferIPlNS_9allocatorIS1_EEE9__end_capB7v160006Ev, symObjAddr: 0x2218, symBinAddr: 0x100004158, symSize: 0x28 }
  - { offsetInCU: 0x11940, offset: 0x11940, size: 0x8, addend: 0x0, symName: __ZNKSt3__117__compressed_pairIPPlNS_9allocatorIS1_EEE5firstB7v160006Ev, symObjAddr: 0x2240, symBinAddr: 0x100004180, symSize: 0x24 }
  - { offsetInCU: 0x11966, offset: 0x11966, size: 0x8, addend: 0x0, symName: __ZNKSt3__122__compressed_pair_elemIPPlLi0ELb0EE5__getB7v160006Ev, symObjAddr: 0x2264, symBinAddr: 0x1000041A4, symSize: 0x14 }
  - { offsetInCU: 0x1198C, offset: 0x1198C, size: 0x8, addend: 0x0, symName: __ZNSt3__114priority_queueIP7ProcessNS_6vectorIS2_NS_9allocatorIS2_EEEE20CompareProcessByTimeED2Ev, symObjAddr: 0x2278, symBinAddr: 0x1000041B8, symSize: 0x2C }
  - { offsetInCU: 0x119B9, offset: 0x119B9, size: 0x8, addend: 0x0, symName: __ZNSt3__114priority_queueIP7ProcessNS_6vectorIS2_NS_9allocatorIS2_EEEE22CompareProcessByThreadED2Ev, symObjAddr: 0x22A4, symBinAddr: 0x1000041E4, symSize: 0x2C }
  - { offsetInCU: 0x119E6, offset: 0x119E6, size: 0x8, addend: 0x0, symName: __ZNSt3__114basic_ofstreamIcNS_11char_traitsIcEEED2Ev, symObjAddr: 0x22D0, symBinAddr: 0x100004210, symSize: 0x64 }
  - { offsetInCU: 0x11A20, offset: 0x11A20, size: 0x8, addend: 0x0, symName: __ZTv0_n24_NSt3__114basic_ofstreamIcNS_11char_traitsIcEEED1Ev, symObjAddr: 0x2334, symBinAddr: 0x100004274, symSize: 0x28 }
  - { offsetInCU: 0x11A37, offset: 0x11A37, size: 0x8, addend: 0x0, symName: __ZNSt3__114basic_ifstreamIcNS_11char_traitsIcEEED2Ev, symObjAddr: 0x235C, symBinAddr: 0x10000429C, symSize: 0x64 }
  - { offsetInCU: 0x11A71, offset: 0x11A71, size: 0x8, addend: 0x0, symName: __ZTv0_n24_NSt3__114basic_ifstreamIcNS_11char_traitsIcEEED1Ev, symObjAddr: 0x23C0, symBinAddr: 0x100004300, symSize: 0x28 }
  - { offsetInCU: 0x11A88, offset: 0x11A88, size: 0x8, addend: 0x0, symName: __ZNSt3__112basic_stringIcNS_11char_traitsIcEENS_9allocatorIcEEEC2B7v160006Ev, symObjAddr: 0x23E8, symBinAddr: 0x100004328, symSize: 0x54 }
  - { offsetInCU: 0x11AB8, offset: 0x11AB8, size: 0x8, addend: 0x0, symName: __ZNSt3__117__compressed_pairINS_12basic_stringIcNS_11char_traitsIcEENS_9allocatorIcEEE5__repES5_EC1B7v160006INS_18__default_init_tagESA_EEOT_OT0_, symObjAddr: 0x243C, symBinAddr: 0x10000437C, symSize: 0x3C }
  - { offsetInCU: 0x11B10, offset: 0x11B10, size: 0x8, addend: 0x0, symName: __ZNSt3__112basic_stringIcNS_11char_traitsIcEENS_9allocatorIcEEE14__default_initB7v160006Ev, symObjAddr: 0x2488, symBinAddr: 0x1000043C8, symSize: 0x40 }
  - { offsetInCU: 0x11B36, offset: 0x11B36, size: 0x8, addend: 0x0, symName: __ZNSt3__117__compressed_pairINS_12basic_stringIcNS_11char_traitsIcEENS_9allocatorIcEEE5__repES5_EC2B7v160006INS_18__default_init_tagESA_EEOT_OT0_, symObjAddr: 0x24C8, symBinAddr: 0x100004408, symSize: 0x3C }
  - { offsetInCU: 0x11B8E, offset: 0x11B8E, size: 0x8, addend: 0x0, symName: __ZNSt3__122__compressed_pair_elemINS_12basic_stringIcNS_11char_traitsIcEENS_9allocatorIcEEE5__repELi0ELb0EEC2B7v160006ENS_18__default_init_tagE, symObjAddr: 0x2504, symBinAddr: 0x100004444, symSize: 0x14 }
  - { offsetInCU: 0x11BC2, offset: 0x11BC2, size: 0x8, addend: 0x0, symName: __ZNSt3__122__compressed_pair_elemINS_9allocatorIcEELi1ELb1EEC2B7v160006ENS_18__default_init_tagE, symObjAddr: 0x2518, symBinAddr: 0x100004458, symSize: 0x2C }
  - { offsetInCU: 0x11BF6, offset: 0x11BF6, size: 0x8, addend: 0x0, symName: __ZNSt3__19allocatorIcEC2B7v160006Ev, symObjAddr: 0x2544, symBinAddr: 0x100004484, symSize: 0x2C }
  - { offsetInCU: 0x11C20, offset: 0x11C20, size: 0x8, addend: 0x0, symName: __ZNSt3__116__non_trivial_ifILb1ENS_9allocatorIcEEEC2B7v160006Ev, symObjAddr: 0x2570, symBinAddr: 0x1000044B0, symSize: 0x14 }
  - { offsetInCU: 0x11C4A, offset: 0x11C4A, size: 0x8, addend: 0x0, symName: __ZNSt3__117__compressed_pairINS_12basic_stringIcNS_11char_traitsIcEENS_9allocatorIcEEE5__repES5_E5firstB7v160006Ev, symObjAddr: 0x2584, symBinAddr: 0x1000044C4, symSize: 0x24 }
  - { offsetInCU: 0x11C70, offset: 0x11C70, size: 0x8, addend: 0x0, symName: __ZNSt3__122__compressed_pair_elemINS_12basic_stringIcNS_11char_traitsIcEENS_9allocatorIcEEE5__repELi0ELb0EE5__getB7v160006Ev, symObjAddr: 0x25A8, symBinAddr: 0x1000044E8, symSize: 0x14 }
  - { offsetInCU: 0x11C96, offset: 0x11C96, size: 0x8, addend: 0x0, symName: __ZNSt3__19basic_iosIcNS_11char_traitsIcEEEC2B7v160006Ev, symObjAddr: 0x25BC, symBinAddr: 0x1000044FC, symSize: 0x44 }
  - { offsetInCU: 0x11CC0, offset: 0x11CC0, size: 0x8, addend: 0x0, symName: __ZNSt3__113basic_istreamIcNS_11char_traitsIcEEEC2B7v160006EPNS_15basic_streambufIcS2_EE, symObjAddr: 0x2600, symBinAddr: 0x100004540, symSize: 0x64 }
  - { offsetInCU: 0x11D05, offset: 0x11D05, size: 0x8, addend: 0x0, symName: __ZNSt3__18ios_baseC2B7v160006Ev, symObjAddr: 0x2664, symBinAddr: 0x1000045A4, symSize: 0x24 }
  - { offsetInCU: 0x11D2F, offset: 0x11D2F, size: 0x8, addend: 0x0, symName: __ZNSt3__19basic_iosIcNS_11char_traitsIcEEE4initB7v160006EPNS_15basic_streambufIcS2_EE, symObjAddr: 0x2688, symBinAddr: 0x1000045C8, symSize: 0x44 }
  - { offsetInCU: 0x11D66, offset: 0x11D66, size: 0x8, addend: 0x0, symName: __ZNSt3__111char_traitsIcE3eofEv, symObjAddr: 0x26CC, symBinAddr: 0x10000460C, symSize: 0x8 }
  - { offsetInCU: 0x11D7A, offset: 0x11D7A, size: 0x8, addend: 0x0, symName: __ZNSt3__113basic_ostreamIcNS_11char_traitsIcEEEC2B7v160006EPNS_15basic_streambufIcS2_EE, symObjAddr: 0x26D4, symBinAddr: 0x100004614, symSize: 0x60 }
  - { offsetInCU: 0x11DBF, offset: 0x11DBF, size: 0x8, addend: 0x0, symName: __ZNSt3__114priority_queueIP7ProcessNS_6vectorIS2_NS_9allocatorIS2_EEEE22CompareProcessByThreadEC2B7v160006Ev, symObjAddr: 0x2734, symBinAddr: 0x100004674, symSize: 0x2C }
  - { offsetInCU: 0x11DE9, offset: 0x11DE9, size: 0x8, addend: 0x0, symName: __ZNSt3__16vectorIP7ProcessNS_9allocatorIS2_EEED2B7v160006Ev, symObjAddr: 0x2760, symBinAddr: 0x1000046A0, symSize: 0x44 }
  - { offsetInCU: 0x11E13, offset: 0x11E13, size: 0x8, addend: 0x0, symName: __ZNSt3__16vectorIP7ProcessNS_9allocatorIS2_EEE16__destroy_vectorC1ERS5_, symObjAddr: 0x27A4, symBinAddr: 0x1000046E4, symSize: 0x34 }
  - { offsetInCU: 0x11E4C, offset: 0x11E4C, size: 0x8, addend: 0x0, symName: __ZNSt3__16vectorIP7ProcessNS_9allocatorIS2_EEE16__destroy_vectorclB7v160006Ev, symObjAddr: 0x27D8, symBinAddr: 0x100004718, symSize: 0x9C }
  - { offsetInCU: 0x11E72, offset: 0x11E72, size: 0x8, addend: 0x0, symName: __ZNSt3__16vectorIP7ProcessNS_9allocatorIS2_EEE16__destroy_vectorC2ERS5_, symObjAddr: 0x2874, symBinAddr: 0x1000047B4, symSize: 0x20 }
  - { offsetInCU: 0x11EAB, offset: 0x11EAB, size: 0x8, addend: 0x0, symName: __ZNKSt3__16vectorIP7ProcessNS_9allocatorIS2_EEE17__annotate_deleteB7v160006Ev, symObjAddr: 0x2894, symBinAddr: 0x1000047D4, symSize: 0xB8 }
  - { offsetInCU: 0x11ED1, offset: 0x11ED1, size: 0x8, addend: 0x0, symName: __ZNSt3__16vectorIP7ProcessNS_9allocatorIS2_EEE7__clearB7v160006Ev, symObjAddr: 0x295C, symBinAddr: 0x10000489C, symSize: 0x28 }
  - { offsetInCU: 0x11EF7, offset: 0x11EF7, size: 0x8, addend: 0x0, symName: __ZNSt3__116allocator_traitsINS_9allocatorIP7ProcessEEE10deallocateB7v160006ERS4_PS3_m, symObjAddr: 0x2984, symBinAddr: 0x1000048C4, symSize: 0x34 }
  - { offsetInCU: 0x11F39, offset: 0x11F39, size: 0x8, addend: 0x0, symName: __ZNSt3__16vectorIP7ProcessNS_9allocatorIS2_EEE7__allocB7v160006Ev, symObjAddr: 0x29B8, symBinAddr: 0x1000048F8, symSize: 0x28 }
  - { offsetInCU: 0x11F5F, offset: 0x11F5F, size: 0x8, addend: 0x0, symName: __ZNKSt3__16vectorIP7ProcessNS_9allocatorIS2_EEE8capacityB7v160006Ev, symObjAddr: 0x29E0, symBinAddr: 0x100004920, symSize: 0x40 }
  - { offsetInCU: 0x11F85, offset: 0x11F85, size: 0x8, addend: 0x0, symName: __ZNKSt3__16vectorIP7ProcessNS_9allocatorIS2_EEE31__annotate_contiguous_containerB7v160006EPKvS7_S7_S7_, symObjAddr: 0x2A20, symBinAddr: 0x100004960, symSize: 0x20 }
  - { offsetInCU: 0x11FD7, offset: 0x11FD7, size: 0x8, addend: 0x0, symName: __ZNKSt3__16vectorIP7ProcessNS_9allocatorIS2_EEE4dataB7v160006Ev, symObjAddr: 0x2A40, symBinAddr: 0x100004980, symSize: 0x28 }
  - { offsetInCU: 0x11FFD, offset: 0x11FFD, size: 0x8, addend: 0x0, symName: __ZNKSt3__16vectorIP7ProcessNS_9allocatorIS2_EEE4sizeB7v160006Ev, symObjAddr: 0x2A68, symBinAddr: 0x1000049A8, symSize: 0x28 }
  - { offsetInCU: 0x12023, offset: 0x12023, size: 0x8, addend: 0x0, symName: __ZNSt3__16vectorIP7ProcessNS_9allocatorIS2_EEE22__base_destruct_at_endB7v160006EPS2_, symObjAddr: 0x2AA4, symBinAddr: 0x1000049E4, symSize: 0x8C }
  - { offsetInCU: 0x12067, offset: 0x12067, size: 0x8, addend: 0x0, symName: __ZNSt3__116allocator_traitsINS_9allocatorIP7ProcessEEE7destroyB7v160006IS3_vEEvRS4_PT_, symObjAddr: 0x2B30, symBinAddr: 0x100004A70, symSize: 0x2C }
  - { offsetInCU: 0x120A4, offset: 0x120A4, size: 0x8, addend: 0x0, symName: __ZNSt3__19allocatorIP7ProcessE7destroyB7v160006EPS2_, symObjAddr: 0x2B5C, symBinAddr: 0x100004A9C, symSize: 0x14 }
  - { offsetInCU: 0x120D8, offset: 0x120D8, size: 0x8, addend: 0x0, symName: __ZNSt3__19allocatorIP7ProcessE10deallocateB7v160006EPS2_m, symObjAddr: 0x2B70, symBinAddr: 0x100004AB0, symSize: 0x40 }
  - { offsetInCU: 0x1211A, offset: 0x1211A, size: 0x8, addend: 0x0, symName: __ZNSt3__117__compressed_pairIPP7ProcessNS_9allocatorIS2_EEE6secondB7v160006Ev, symObjAddr: 0x2BB0, symBinAddr: 0x100004AF0, symSize: 0x24 }
  - { offsetInCU: 0x12140, offset: 0x12140, size: 0x8, addend: 0x0, symName: __ZNSt3__122__compressed_pair_elemINS_9allocatorIP7ProcessEELi1ELb1EE5__getB7v160006Ev, symObjAddr: 0x2BD4, symBinAddr: 0x100004B14, symSize: 0x14 }
  - { offsetInCU: 0x12166, offset: 0x12166, size: 0x8, addend: 0x0, symName: __ZNKSt3__16vectorIP7ProcessNS_9allocatorIS2_EEE9__end_capB7v160006Ev, symObjAddr: 0x2BE8, symBinAddr: 0x100004B28, symSize: 0x28 }
  - { offsetInCU: 0x1218C, offset: 0x1218C, size: 0x8, addend: 0x0, symName: __ZNKSt3__117__compressed_pairIPP7ProcessNS_9allocatorIS2_EEE5firstB7v160006Ev, symObjAddr: 0x2C10, symBinAddr: 0x100004B50, symSize: 0x24 }
  - { offsetInCU: 0x121B2, offset: 0x121B2, size: 0x8, addend: 0x0, symName: __ZNKSt3__122__compressed_pair_elemIPP7ProcessLi0ELb0EE5__getB7v160006Ev, symObjAddr: 0x2C34, symBinAddr: 0x100004B74, symSize: 0x14 }
  - { offsetInCU: 0x121D8, offset: 0x121D8, size: 0x8, addend: 0x0, symName: __ZNSt3__114priority_queueIP7ProcessNS_6vectorIS2_NS_9allocatorIS2_EEEE20CompareProcessByTimeEC2B7v160006Ev, symObjAddr: 0x2C48, symBinAddr: 0x100004B88, symSize: 0x2C }
  - { offsetInCU: 0x12202, offset: 0x12202, size: 0x8, addend: 0x0, symName: __ZNSt3__112basic_stringIcNS_11char_traitsIcEENS_9allocatorIcEEEC1B7v160006EOS5_, symObjAddr: 0x2C74, symBinAddr: 0x100004BB4, symSize: 0x34 }
  - { offsetInCU: 0x1223B, offset: 0x1223B, size: 0x8, addend: 0x0, symName: __ZNSt3__112basic_stringIcNS_11char_traitsIcEENS_9allocatorIcEEEC2B7v160006EOS5_, symObjAddr: 0x2CA8, symBinAddr: 0x100004BE8, symSize: 0x80 }
  - { offsetInCU: 0x12274, offset: 0x12274, size: 0x8, addend: 0x0, symName: __ZNKSt3__112basic_stringIcNS_11char_traitsIcEENS_9allocatorIcEEE9__is_longB7v160006Ev, symObjAddr: 0x2D28, symBinAddr: 0x100004C68, symSize: 0x38 }
  - { offsetInCU: 0x1229A, offset: 0x1229A, size: 0x8, addend: 0x0, symName: __ZNKSt3__117__compressed_pairINS_12basic_stringIcNS_11char_traitsIcEENS_9allocatorIcEEE5__repES5_E5firstB7v160006Ev, symObjAddr: 0x2D74, symBinAddr: 0x100004CB4, symSize: 0x24 }
  - { offsetInCU: 0x122C0, offset: 0x122C0, size: 0x8, addend: 0x0, symName: __ZNKSt3__122__compressed_pair_elemINS_12basic_stringIcNS_11char_traitsIcEENS_9allocatorIcEEE5__repELi0ELb0EE5__getB7v160006Ev, symObjAddr: 0x2D98, symBinAddr: 0x100004CD8, symSize: 0x14 }
  - { offsetInCU: 0x122E6, offset: 0x122E6, size: 0x8, addend: 0x0, symName: __ZNSt3__15queueIlNS_5dequeIlNS_9allocatorIlEEEEEC2B7v160006Ev, symObjAddr: 0x2DAC, symBinAddr: 0x100004CEC, symSize: 0x2C }
  - { offsetInCU: 0x12310, offset: 0x12310, size: 0x8, addend: 0x0, symName: __ZNSt3__15dequeIlNS_9allocatorIlEEEC1B7v160006Ev, symObjAddr: 0x2DD8, symBinAddr: 0x100004D18, symSize: 0x2C }
  - { offsetInCU: 0x1233A, offset: 0x1233A, size: 0x8, addend: 0x0, symName: __ZNSt3__15dequeIlNS_9allocatorIlEEEC2B7v160006Ev, symObjAddr: 0x2E04, symBinAddr: 0x100004D44, symSize: 0x50 }
  - { offsetInCU: 0x12364, offset: 0x12364, size: 0x8, addend: 0x0, symName: __ZNSt3__114__split_bufferIPlNS_9allocatorIS1_EEEC1Ev, symObjAddr: 0x2E54, symBinAddr: 0x100004D94, symSize: 0x2C }
  - { offsetInCU: 0x12396, offset: 0x12396, size: 0x8, addend: 0x0, symName: __ZNSt3__117__compressed_pairImNS_9allocatorIlEEEC1B7v160006IiNS_18__default_init_tagEEEOT_OT0_, symObjAddr: 0x2E80, symBinAddr: 0x100004DC0, symSize: 0x3C }
  - { offsetInCU: 0x123EE, offset: 0x123EE, size: 0x8, addend: 0x0, symName: __ZNSt3__114__split_bufferIPlNS_9allocatorIS1_EEEC2Ev, symObjAddr: 0x2EBC, symBinAddr: 0x100004DFC, symSize: 0x50 }
  - { offsetInCU: 0x12420, offset: 0x12420, size: 0x8, addend: 0x0, symName: __ZNSt3__117__compressed_pairIPPlNS_9allocatorIS1_EEEC1B7v160006IDnNS_18__default_init_tagEEEOT_OT0_, symObjAddr: 0x2F0C, symBinAddr: 0x100004E4C, symSize: 0x3C }
  - { offsetInCU: 0x12478, offset: 0x12478, size: 0x8, addend: 0x0, symName: __ZNSt3__117__compressed_pairIPPlNS_9allocatorIS1_EEEC2B7v160006IDnNS_18__default_init_tagEEEOT_OT0_, symObjAddr: 0x2F48, symBinAddr: 0x100004E88, symSize: 0x40 }
  - { offsetInCU: 0x124D0, offset: 0x124D0, size: 0x8, addend: 0x0, symName: __ZNSt3__122__compressed_pair_elemIPPlLi0ELb0EEC2B7v160006IDnvEEOT_, symObjAddr: 0x2F88, symBinAddr: 0x100004EC8, symSize: 0x1C }
  - { offsetInCU: 0x12512, offset: 0x12512, size: 0x8, addend: 0x0, symName: __ZNSt3__122__compressed_pair_elemINS_9allocatorIPlEELi1ELb1EEC2B7v160006ENS_18__default_init_tagE, symObjAddr: 0x2FA4, symBinAddr: 0x100004EE4, symSize: 0x2C }
  - { offsetInCU: 0x12546, offset: 0x12546, size: 0x8, addend: 0x0, symName: __ZNSt3__19allocatorIPlEC2B7v160006Ev, symObjAddr: 0x2FD0, symBinAddr: 0x100004F10, symSize: 0x2C }
  - { offsetInCU: 0x12570, offset: 0x12570, size: 0x8, addend: 0x0, symName: __ZNSt3__116__non_trivial_ifILb1ENS_9allocatorIPlEEEC2B7v160006Ev, symObjAddr: 0x2FFC, symBinAddr: 0x100004F3C, symSize: 0x14 }
  - { offsetInCU: 0x1259A, offset: 0x1259A, size: 0x8, addend: 0x0, symName: __ZNSt3__117__compressed_pairImNS_9allocatorIlEEEC2B7v160006IiNS_18__default_init_tagEEEOT_OT0_, symObjAddr: 0x3010, symBinAddr: 0x100004F50, symSize: 0x40 }
  - { offsetInCU: 0x125F2, offset: 0x125F2, size: 0x8, addend: 0x0, symName: __ZNSt3__122__compressed_pair_elemImLi0ELb0EEC2B7v160006IivEEOT_, symObjAddr: 0x3050, symBinAddr: 0x100004F90, symSize: 0x24 }
  - { offsetInCU: 0x12634, offset: 0x12634, size: 0x8, addend: 0x0, symName: __ZNSt3__122__compressed_pair_elemINS_9allocatorIlEELi1ELb1EEC2B7v160006ENS_18__default_init_tagE, symObjAddr: 0x3074, symBinAddr: 0x100004FB4, symSize: 0x2C }
  - { offsetInCU: 0x12668, offset: 0x12668, size: 0x8, addend: 0x0, symName: __ZNSt3__19allocatorIlEC2B7v160006Ev, symObjAddr: 0x30A0, symBinAddr: 0x100004FE0, symSize: 0x2C }
  - { offsetInCU: 0x12692, offset: 0x12692, size: 0x8, addend: 0x0, symName: __ZNSt3__116__non_trivial_ifILb1ENS_9allocatorIlEEEC2B7v160006Ev, symObjAddr: 0x30CC, symBinAddr: 0x10000500C, symSize: 0x14 }
  - { offsetInCU: 0x126BC, offset: 0x126BC, size: 0x8, addend: 0x0, symName: __ZNSt3__16vectorIP7ProcessNS_9allocatorIS2_EEEC2B7v160006Ev, symObjAddr: 0x30E0, symBinAddr: 0x100005020, symSize: 0x58 }
  - { offsetInCU: 0x126E6, offset: 0x126E6, size: 0x8, addend: 0x0, symName: __ZNSt3__117__compressed_pairIPP7ProcessNS_9allocatorIS2_EEEC1B7v160006IDnNS_18__default_init_tagEEEOT_OT0_, symObjAddr: 0x3138, symBinAddr: 0x100005078, symSize: 0x3C }
  - { offsetInCU: 0x1273E, offset: 0x1273E, size: 0x8, addend: 0x0, symName: __ZNSt3__117__compressed_pairIPP7ProcessNS_9allocatorIS2_EEEC2B7v160006IDnNS_18__default_init_tagEEEOT_OT0_, symObjAddr: 0x3184, symBinAddr: 0x1000050C4, symSize: 0x40 }
  - { offsetInCU: 0x12796, offset: 0x12796, size: 0x8, addend: 0x0, symName: __ZNSt3__122__compressed_pair_elemIPP7ProcessLi0ELb0EEC2B7v160006IDnvEEOT_, symObjAddr: 0x31C4, symBinAddr: 0x100005104, symSize: 0x1C }
  - { offsetInCU: 0x127D8, offset: 0x127D8, size: 0x8, addend: 0x0, symName: __ZNSt3__122__compressed_pair_elemINS_9allocatorIP7ProcessEELi1ELb1EEC2B7v160006ENS_18__default_init_tagE, symObjAddr: 0x31E0, symBinAddr: 0x100005120, symSize: 0x2C }
  - { offsetInCU: 0x1280C, offset: 0x1280C, size: 0x8, addend: 0x0, symName: __ZNSt3__19allocatorIP7ProcessEC2B7v160006Ev, symObjAddr: 0x320C, symBinAddr: 0x10000514C, symSize: 0x2C }
  - { offsetInCU: 0x12836, offset: 0x12836, size: 0x8, addend: 0x0, symName: __ZNSt3__116__non_trivial_ifILb1ENS_9allocatorIP7ProcessEEEC2B7v160006Ev, symObjAddr: 0x3238, symBinAddr: 0x100005178, symSize: 0x14 }
  - { offsetInCU: 0x12860, offset: 0x12860, size: 0x8, addend: 0x0, symName: __ZNKSt3__19basic_iosIcNS_11char_traitsIcEEE5widenB7v160006Ec, symObjAddr: 0x3484, symBinAddr: 0x1000053C4, symSize: 0x84 }
  - { offsetInCU: 0x128B5, offset: 0x128B5, size: 0x8, addend: 0x0, symName: __ZNKSt3__113basic_istreamIcNS_11char_traitsIcEEE6sentrycvbB7v160006Ev, symObjAddr: 0x3508, symBinAddr: 0x100005448, symSize: 0x1C }
  - { offsetInCU: 0x128DB, offset: 0x128DB, size: 0x8, addend: 0x0, symName: __ZNSt3__112basic_stringIcNS_11char_traitsIcEENS_9allocatorIcEEE5clearB7v160006Ev, symObjAddr: 0x3524, symBinAddr: 0x100005464, symSize: 0x88 }
  - { offsetInCU: 0x12903, offset: 0x12903, size: 0x8, addend: 0x0, symName: __ZNKSt3__19basic_iosIcNS_11char_traitsIcEEE5rdbufB7v160006Ev, symObjAddr: 0x35AC, symBinAddr: 0x1000054EC, symSize: 0x24 }
  - { offsetInCU: 0x1292B, offset: 0x1292B, size: 0x8, addend: 0x0, symName: __ZNSt3__115basic_streambufIcNS_11char_traitsIcEEE6sbumpcB7v160006Ev, symObjAddr: 0x35D0, symBinAddr: 0x100005510, symSize: 0x78 }
  - { offsetInCU: 0x12951, offset: 0x12951, size: 0x8, addend: 0x0, symName: __ZNSt3__111char_traitsIcE11eq_int_typeEii, symObjAddr: 0x3648, symBinAddr: 0x100005588, symSize: 0x28 }
  - { offsetInCU: 0x12982, offset: 0x12982, size: 0x8, addend: 0x0, symName: __ZNSt3__111char_traitsIcE12to_char_typeEi, symObjAddr: 0x3670, symBinAddr: 0x1000055B0, symSize: 0x18 }
  - { offsetInCU: 0x129A5, offset: 0x129A5, size: 0x8, addend: 0x0, symName: __ZNSt3__111char_traitsIcE2eqEcc, symObjAddr: 0x3688, symBinAddr: 0x1000055C8, symSize: 0x28 }
  - { offsetInCU: 0x129D6, offset: 0x129D6, size: 0x8, addend: 0x0, symName: __ZNKSt3__112basic_stringIcNS_11char_traitsIcEENS_9allocatorIcEEE4sizeB7v160006Ev, symObjAddr: 0x36B0, symBinAddr: 0x1000055F0, symSize: 0x54 }
  - { offsetInCU: 0x129FC, offset: 0x129FC, size: 0x8, addend: 0x0, symName: __ZNKSt3__112basic_stringIcNS_11char_traitsIcEENS_9allocatorIcEEE8max_sizeB7v160006Ev, symObjAddr: 0x3704, symBinAddr: 0x100005644, symSize: 0xAC }
  - { offsetInCU: 0x12A4E, offset: 0x12A4E, size: 0x8, addend: 0x0, symName: __ZNSt3__18ios_base18__setstate_nothrowB7v160006Ej, symObjAddr: 0x37B0, symBinAddr: 0x1000056F0, symSize: 0x64 }
  - { offsetInCU: 0x12A83, offset: 0x12A83, size: 0x8, addend: 0x0, symName: __ZNKSt3__19basic_iosIcNS_11char_traitsIcEEE10exceptionsB7v160006Ev, symObjAddr: 0x3814, symBinAddr: 0x100005754, symSize: 0x24 }
  - { offsetInCU: 0x12AA9, offset: 0x12AA9, size: 0x8, addend: 0x0, symName: __ZNSt3__19basic_iosIcNS_11char_traitsIcEEE8setstateB7v160006Ej, symObjAddr: 0x3838, symBinAddr: 0x100005778, symSize: 0x2C }
  - { offsetInCU: 0x12ADE, offset: 0x12ADE, size: 0x8, addend: 0x0, symName: __ZNSt3__111char_traitsIcE6assignERcRKc, symObjAddr: 0x3874, symBinAddr: 0x1000057B4, symSize: 0x24 }
  - { offsetInCU: 0x12B0F, offset: 0x12B0F, size: 0x8, addend: 0x0, symName: __ZNSt3__112basic_stringIcNS_11char_traitsIcEENS_9allocatorIcEEE18__get_long_pointerB7v160006Ev, symObjAddr: 0x3898, symBinAddr: 0x1000057D8, symSize: 0x28 }
  - { offsetInCU: 0x12B35, offset: 0x12B35, size: 0x8, addend: 0x0, symName: __ZNSt3__112basic_stringIcNS_11char_traitsIcEENS_9allocatorIcEEE15__set_long_sizeB7v160006Em, symObjAddr: 0x38C0, symBinAddr: 0x100005800, symSize: 0x38 }
  - { offsetInCU: 0x12B6A, offset: 0x12B6A, size: 0x8, addend: 0x0, symName: __ZNSt3__112basic_stringIcNS_11char_traitsIcEENS_9allocatorIcEEE19__get_short_pointerB7v160006Ev, symObjAddr: 0x38F8, symBinAddr: 0x100005838, symSize: 0x28 }
  - { offsetInCU: 0x12B90, offset: 0x12B90, size: 0x8, addend: 0x0, symName: __ZNSt3__112basic_stringIcNS_11char_traitsIcEENS_9allocatorIcEEE16__set_short_sizeB7v160006Em, symObjAddr: 0x3920, symBinAddr: 0x100005860, symSize: 0x78 }
  - { offsetInCU: 0x12BC5, offset: 0x12BC5, size: 0x8, addend: 0x0, symName: __ZNSt3__114pointer_traitsIPcE10pointer_toB7v160006ERc, symObjAddr: 0x3998, symBinAddr: 0x1000058D8, symSize: 0x14 }
  - { offsetInCU: 0x12BE8, offset: 0x12BE8, size: 0x8, addend: 0x0, symName: __ZNKSt3__18ios_base5rdbufB7v160006Ev, symObjAddr: 0x39AC, symBinAddr: 0x1000058EC, symSize: 0x18 }
  - { offsetInCU: 0x12C0E, offset: 0x12C0E, size: 0x8, addend: 0x0, symName: __ZNSt3__111char_traitsIcE11to_int_typeEc, symObjAddr: 0x39C4, symBinAddr: 0x100005904, symSize: 0x14 }
  - { offsetInCU: 0x12C31, offset: 0x12C31, size: 0x8, addend: 0x0, symName: __ZNKSt3__112basic_stringIcNS_11char_traitsIcEENS_9allocatorIcEEE15__get_long_sizeB7v160006Ev, symObjAddr: 0x39D8, symBinAddr: 0x100005918, symSize: 0x28 }
  - { offsetInCU: 0x12C57, offset: 0x12C57, size: 0x8, addend: 0x0, symName: __ZNKSt3__112basic_stringIcNS_11char_traitsIcEENS_9allocatorIcEEE16__get_short_sizeB7v160006Ev, symObjAddr: 0x3A00, symBinAddr: 0x100005940, symSize: 0x34 }
  - { offsetInCU: 0x12C87, offset: 0x12C87, size: 0x8, addend: 0x0, symName: __ZNSt3__116allocator_traitsINS_9allocatorIcEEE8max_sizeB7v160006IS2_vEEmRKS2_, symObjAddr: 0x3A34, symBinAddr: 0x100005974, symSize: 0x24 }
  - { offsetInCU: 0x12CB5, offset: 0x12CB5, size: 0x8, addend: 0x0, symName: __ZNKSt3__112basic_stringIcNS_11char_traitsIcEENS_9allocatorIcEEE7__allocB7v160006Ev, symObjAddr: 0x3A58, symBinAddr: 0x100005998, symSize: 0x24 }
  - { offsetInCU: 0x12CDB, offset: 0x12CDB, size: 0x8, addend: 0x0, symName: __ZNSt3__114numeric_limitsImE3maxB7v160006Ev, symObjAddr: 0x3A7C, symBinAddr: 0x1000059BC, symSize: 0x14 }
  - { offsetInCU: 0x12CEF, offset: 0x12CEF, size: 0x8, addend: 0x0, symName: __ZNKSt3__19allocatorIcE8max_sizeB7v160006Ev, symObjAddr: 0x3A90, symBinAddr: 0x1000059D0, symSize: 0x14 }
  - { offsetInCU: 0x12D15, offset: 0x12D15, size: 0x8, addend: 0x0, symName: __ZNKSt3__117__compressed_pairINS_12basic_stringIcNS_11char_traitsIcEENS_9allocatorIcEEE5__repES5_E6secondB7v160006Ev, symObjAddr: 0x3AA4, symBinAddr: 0x1000059E4, symSize: 0x24 }
  - { offsetInCU: 0x12D3B, offset: 0x12D3B, size: 0x8, addend: 0x0, symName: __ZNKSt3__122__compressed_pair_elemINS_9allocatorIcEELi1ELb1EE5__getB7v160006Ev, symObjAddr: 0x3AC8, symBinAddr: 0x100005A08, symSize: 0x14 }
  - { offsetInCU: 0x12D61, offset: 0x12D61, size: 0x8, addend: 0x0, symName: __ZNSt3__123__libcpp_numeric_limitsImLb1EE3maxB7v160006Ev, symObjAddr: 0x3ADC, symBinAddr: 0x100005A1C, symSize: 0x8 }
  - { offsetInCU: 0x12D75, offset: 0x12D75, size: 0x8, addend: 0x0, symName: __ZNKSt3__18ios_base10exceptionsB7v160006Ev, symObjAddr: 0x3AE4, symBinAddr: 0x100005A24, symSize: 0x18 }
  - { offsetInCU: 0x12D9D, offset: 0x12D9D, size: 0x8, addend: 0x0, symName: __ZNSt3__18ios_base8setstateB7v160006Ej, symObjAddr: 0x3AFC, symBinAddr: 0x100005A3C, symSize: 0x34 }
  - { offsetInCU: 0x12E0B, offset: 0x12E0B, size: 0x8, addend: 0x0, symName: __ZNKSt3__15ctypeIcE5widenB7v160006Ec, symObjAddr: 0x3B5C, symBinAddr: 0x100005A9C, symSize: 0x38 }
  - { offsetInCU: 0x12E40, offset: 0x12E40, size: 0x8, addend: 0x0, symName: __ZNKSt3__19basic_iosIcNS_11char_traitsIcEEE4failB7v160006Ev, symObjAddr: 0x3B94, symBinAddr: 0x100005AD4, symSize: 0x28 }
  - { offsetInCU: 0x12E66, offset: 0x12E66, size: 0x8, addend: 0x0, symName: __ZNKSt3__18ios_base4failB7v160006Ev, symObjAddr: 0x3BBC, symBinAddr: 0x100005AFC, symSize: 0x28 }
  - { offsetInCU: 0x12E8E, offset: 0x12E8E, size: 0x8, addend: 0x0, symName: __ZNSt3__115basic_stringbufIcNS_11char_traitsIcEENS_9allocatorIcEEEC1B7v160006ERKNS_12basic_stringIcS2_S4_EEj, symObjAddr: 0x3BE4, symBinAddr: 0x100005B24, symSize: 0x3C }
  - { offsetInCU: 0x12ED4, offset: 0x12ED4, size: 0x8, addend: 0x0, symName: __ZNSt3__115basic_stringbufIcNS_11char_traitsIcEENS_9allocatorIcEEEC2B7v160006ERKNS_12basic_stringIcS2_S4_EEj, symObjAddr: 0x3C20, symBinAddr: 0x100005B60, symSize: 0xB4 }
  - { offsetInCU: 0x12F1A, offset: 0x12F1A, size: 0x8, addend: 0x0, symName: __ZNKSt3__112basic_stringIcNS_11char_traitsIcEENS_9allocatorIcEEE13get_allocatorB7v160006Ev, symObjAddr: 0x3CD4, symBinAddr: 0x100005C14, symSize: 0x24 }
  - { offsetInCU: 0x12F40, offset: 0x12F40, size: 0x8, addend: 0x0, symName: __ZNSt3__112basic_stringIcNS_11char_traitsIcEENS_9allocatorIcEEEC1B7v160006ERKS4_, symObjAddr: 0x3CF8, symBinAddr: 0x100005C38, symSize: 0x34 }
  - { offsetInCU: 0x12F79, offset: 0x12F79, size: 0x8, addend: 0x0, symName: __ZNSt3__112basic_stringIcNS_11char_traitsIcEENS_9allocatorIcEEEC2B7v160006ERKS4_, symObjAddr: 0x3D2C, symBinAddr: 0x100005C6C, symSize: 0x50 }
  - { offsetInCU: 0x12FB2, offset: 0x12FB2, size: 0x8, addend: 0x0, symName: __ZNSt3__117__compressed_pairINS_12basic_stringIcNS_11char_traitsIcEENS_9allocatorIcEEE5__repES5_EC1B7v160006INS_18__default_init_tagERKS5_EEOT_OT0_, symObjAddr: 0x3D7C, symBinAddr: 0x100005CBC, symSize: 0x3C }
  - { offsetInCU: 0x1300A, offset: 0x1300A, size: 0x8, addend: 0x0, symName: __ZNSt3__117__compressed_pairINS_12basic_stringIcNS_11char_traitsIcEENS_9allocatorIcEEE5__repES5_EC2B7v160006INS_18__default_init_tagERKS5_EEOT_OT0_, symObjAddr: 0x3DB8, symBinAddr: 0x100005CF8, symSize: 0x40 }
  - { offsetInCU: 0x13062, offset: 0x13062, size: 0x8, addend: 0x0, symName: __ZNSt3__122__compressed_pair_elemINS_9allocatorIcEELi1ELb1EEC2B7v160006IRKS2_vEEOT_, symObjAddr: 0x3DF8, symBinAddr: 0x100005D38, symSize: 0x18 }
  - { offsetInCU: 0x130A4, offset: 0x130A4, size: 0x8, addend: 0x0, symName: __ZNSt3__111char_traitsIcE6lengthEPKc, symObjAddr: 0x3FFC, symBinAddr: 0x100005F3C, symSize: 0x34 }
  - { offsetInCU: 0x130E5, offset: 0x130E5, size: 0x8, addend: 0x0, symName: __ZNKSt3__113basic_ostreamIcNS_11char_traitsIcEEE6sentrycvbB7v160006Ev, symObjAddr: 0x4030, symBinAddr: 0x100005F70, symSize: 0x1C }
  - { offsetInCU: 0x1310B, offset: 0x1310B, size: 0x8, addend: 0x0, symName: __ZNSt3__119ostreambuf_iteratorIcNS_11char_traitsIcEEEC1B7v160006ERNS_13basic_ostreamIcS2_EE, symObjAddr: 0x428C, symBinAddr: 0x1000061CC, symSize: 0x34 }
  - { offsetInCU: 0x13143, offset: 0x13143, size: 0x8, addend: 0x0, symName: __ZNKSt3__18ios_base5flagsB7v160006Ev, symObjAddr: 0x42C0, symBinAddr: 0x100006200, symSize: 0x18 }
  - { offsetInCU: 0x1316B, offset: 0x1316B, size: 0x8, addend: 0x0, symName: __ZNKSt3__19basic_iosIcNS_11char_traitsIcEEE4fillB7v160006Ev, symObjAddr: 0x42D8, symBinAddr: 0x100006218, symSize: 0x64 }
  - { offsetInCU: 0x13193, offset: 0x13193, size: 0x8, addend: 0x0, symName: __ZNKSt3__119ostreambuf_iteratorIcNS_11char_traitsIcEEE6failedB7v160006Ev, symObjAddr: 0x433C, symBinAddr: 0x10000627C, symSize: 0x24 }
  - { offsetInCU: 0x131B9, offset: 0x131B9, size: 0x8, addend: 0x0, symName: __ZNKSt3__18ios_base5widthB7v160006Ev, symObjAddr: 0x4360, symBinAddr: 0x1000062A0, symSize: 0x18 }
  - { offsetInCU: 0x131E1, offset: 0x131E1, size: 0x8, addend: 0x0, symName: __ZNSt3__115basic_streambufIcNS_11char_traitsIcEEE5sputnB7v160006EPKcl, symObjAddr: 0x4378, symBinAddr: 0x1000062B8, symSize: 0x3C }
  - { offsetInCU: 0x13223, offset: 0x13223, size: 0x8, addend: 0x0, symName: __ZNSt3__112basic_stringIcNS_11char_traitsIcEENS_9allocatorIcEEEC1B7v160006Emc, symObjAddr: 0x43B4, symBinAddr: 0x1000062F4, symSize: 0x3C }
  - { offsetInCU: 0x1326B, offset: 0x1326B, size: 0x8, addend: 0x0, symName: __ZNKSt3__112basic_stringIcNS_11char_traitsIcEENS_9allocatorIcEEE4dataB7v160006Ev, symObjAddr: 0x43F0, symBinAddr: 0x100006330, symSize: 0x28 }
  - { offsetInCU: 0x13291, offset: 0x13291, size: 0x8, addend: 0x0, symName: __ZNSt3__18ios_base5widthB7v160006El, symObjAddr: 0x4418, symBinAddr: 0x100006358, symSize: 0x2C }
  - { offsetInCU: 0x132D7, offset: 0x132D7, size: 0x8, addend: 0x0, symName: __ZNSt3__112basic_stringIcNS_11char_traitsIcEENS_9allocatorIcEEEC2B7v160006Emc, symObjAddr: 0x4444, symBinAddr: 0x100006384, symSize: 0x54 }
  - { offsetInCU: 0x1331F, offset: 0x1331F, size: 0x8, addend: 0x0, symName: __ZNKSt3__112basic_stringIcNS_11char_traitsIcEENS_9allocatorIcEEE13__get_pointerB7v160006Ev, symObjAddr: 0x44AC, symBinAddr: 0x1000063EC, symSize: 0x54 }
  - { offsetInCU: 0x13345, offset: 0x13345, size: 0x8, addend: 0x0, symName: __ZNKSt3__112basic_stringIcNS_11char_traitsIcEENS_9allocatorIcEEE18__get_long_pointerB7v160006Ev, symObjAddr: 0x4500, symBinAddr: 0x100006440, symSize: 0x28 }
  - { offsetInCU: 0x1336B, offset: 0x1336B, size: 0x8, addend: 0x0, symName: __ZNKSt3__112basic_stringIcNS_11char_traitsIcEENS_9allocatorIcEEE19__get_short_pointerB7v160006Ev, symObjAddr: 0x4528, symBinAddr: 0x100006468, symSize: 0x28 }
  - { offsetInCU: 0x13391, offset: 0x13391, size: 0x8, addend: 0x0, symName: __ZNSt3__114pointer_traitsIPKcE10pointer_toB7v160006ERS1_, symObjAddr: 0x4550, symBinAddr: 0x100006490, symSize: 0x14 }
  - { offsetInCU: 0x133B4, offset: 0x133B4, size: 0x8, addend: 0x0, symName: __ZNSt3__119ostreambuf_iteratorIcNS_11char_traitsIcEEEC2B7v160006ERNS_13basic_ostreamIcS2_EE, symObjAddr: 0x4564, symBinAddr: 0x1000064A4, symSize: 0x54 }
  - { offsetInCU: 0x133EC, offset: 0x133EC, size: 0x8, addend: 0x0, symName: __ZNSt3__15dequeIlNS_9allocatorIlEEE9push_backEOl, symObjAddr: 0x45DC, symBinAddr: 0x10000651C, symSize: 0xA0 }
  - { offsetInCU: 0x13432, offset: 0x13432, size: 0x8, addend: 0x0, symName: __ZNKSt3__15dequeIlNS_9allocatorIlEEE12__back_spareB7v160006Ev, symObjAddr: 0x467C, symBinAddr: 0x1000065BC, symSize: 0x54 }
  - { offsetInCU: 0x13458, offset: 0x13458, size: 0x8, addend: 0x0, symName: __ZNSt3__15dequeIlNS_9allocatorIlEEE19__add_back_capacityEv, symObjAddr: 0x46D0, symBinAddr: 0x100006610, symSize: 0x314 }
  - { offsetInCU: 0x13513, offset: 0x13513, size: 0x8, addend: 0x0, symName: __ZNSt3__116allocator_traitsINS_9allocatorIlEEE9constructB7v160006IlJlEvEEvRS2_PT_DpOT0_, symObjAddr: 0x49E4, symBinAddr: 0x100006924, symSize: 0x34 }
  - { offsetInCU: 0x1356A, offset: 0x1356A, size: 0x8, addend: 0x0, symName: __ZNKSt3__15dequeIlNS_9allocatorIlEEE10__capacityB7v160006Ev, symObjAddr: 0x4A18, symBinAddr: 0x100006958, symSize: 0x60 }
  - { offsetInCU: 0x13590, offset: 0x13590, size: 0x8, addend: 0x0, symName: __ZNKSt3__15dequeIlNS_9allocatorIlEEE13__front_spareB7v160006Ev, symObjAddr: 0x4A78, symBinAddr: 0x1000069B8, symSize: 0x18 }
  - { offsetInCU: 0x135B6, offset: 0x135B6, size: 0x8, addend: 0x0, symName: __ZNSt3__114__split_bufferIPlNS_9allocatorIS1_EEE9push_backB7v160006ERKS1_, symObjAddr: 0x4A90, symBinAddr: 0x1000069D0, symSize: 0x260 }
  - { offsetInCU: 0x1362E, offset: 0x1362E, size: 0x8, addend: 0x0, symName: __ZNKSt3__114__split_bufferIPlNS_9allocatorIS1_EEE12__back_spareB7v160006Ev, symObjAddr: 0x4CF0, symBinAddr: 0x100006C30, symSize: 0x40 }
  - { offsetInCU: 0x13654, offset: 0x13654, size: 0x8, addend: 0x0, symName: __ZNSt3__114__split_bufferIPlNS_9allocatorIS1_EEE9push_backEOS1_, symObjAddr: 0x4D30, symBinAddr: 0x100006C70, symSize: 0x260 }
  - { offsetInCU: 0x136CC, offset: 0x136CC, size: 0x8, addend: 0x0, symName: __ZNSt3__116allocator_traitsINS_9allocatorIlEEE8allocateB7v160006ERS2_m, symObjAddr: 0x4F90, symBinAddr: 0x100006ED0, symSize: 0x2C }
  - { offsetInCU: 0x136FF, offset: 0x136FF, size: 0x8, addend: 0x0, symName: __ZNSt3__114__split_bufferIPlNS_9allocatorIS1_EEE10push_frontEOS1_, symObjAddr: 0x4FBC, symBinAddr: 0x100006EFC, symSize: 0x25C }
  - { offsetInCU: 0x13777, offset: 0x13777, size: 0x8, addend: 0x0, symName: __ZNSt3__114__split_bufferIPlRNS_9allocatorIS1_EEEC1EmmS4_, symObjAddr: 0x5244, symBinAddr: 0x100007184, symSize: 0x44 }
  - { offsetInCU: 0x137D2, offset: 0x137D2, size: 0x8, addend: 0x0, symName: __ZNSt3__122__allocator_destructorINS_9allocatorIlEEEC1B7v160006ERS2_m, symObjAddr: 0x5288, symBinAddr: 0x1000071C8, symSize: 0x3C }
  - { offsetInCU: 0x13897, offset: 0x13897, size: 0x8, addend: 0x0, symName: __ZNSt3__110unique_ptrIPlNS_22__allocator_destructorINS_9allocatorIlEEEEEC1B7v160006ILb1EvEES1_NS_16__dependent_typeINS_27__unique_ptr_deleter_sfinaeIS5_EEXT_EE20__good_rval_ref_typeE, symObjAddr: 0x52C4, symBinAddr: 0x100007204, symSize: 0x3C }
  - { offsetInCU: 0x138E8, offset: 0x138E8, size: 0x8, addend: 0x0, symName: __ZNSt3__114__split_bufferIPlRNS_9allocatorIS1_EEE9push_backEOS1_, symObjAddr: 0x5300, symBinAddr: 0x100007240, symSize: 0x260 }
  - { offsetInCU: 0x13960, offset: 0x13960, size: 0x8, addend: 0x0, symName: __ZNKSt3__110unique_ptrIPlNS_22__allocator_destructorINS_9allocatorIlEEEEE3getB7v160006Ev, symObjAddr: 0x5560, symBinAddr: 0x1000074A0, symSize: 0x28 }
  - { offsetInCU: 0x13986, offset: 0x13986, size: 0x8, addend: 0x0, symName: __ZNSt3__110unique_ptrIPlNS_22__allocator_destructorINS_9allocatorIlEEEEE7releaseB7v160006Ev, symObjAddr: 0x5588, symBinAddr: 0x1000074C8, symSize: 0x44 }
  - { offsetInCU: 0x139BB, offset: 0x139BB, size: 0x8, addend: 0x0, symName: __ZNSt3__114__split_bufferIPlRNS_9allocatorIS1_EEE10push_frontERKS1_, symObjAddr: 0x55CC, symBinAddr: 0x10000750C, symSize: 0x25C }
  - { offsetInCU: 0x13A33, offset: 0x13A33, size: 0x8, addend: 0x0, symName: __ZNSt3__114__split_bufferIPlNS_9allocatorIS1_EEE9__end_capB7v160006Ev, symObjAddr: 0x5864, symBinAddr: 0x1000077A4, symSize: 0x28 }
  - { offsetInCU: 0x13A59, offset: 0x13A59, size: 0x8, addend: 0x0, symName: __ZNSt3__114__split_bufferIPlRNS_9allocatorIS1_EEE9__end_capB7v160006Ev, symObjAddr: 0x588C, symBinAddr: 0x1000077CC, symSize: 0x28 }
  - { offsetInCU: 0x13A7F, offset: 0x13A7F, size: 0x8, addend: 0x0, symName: __ZNSt3__110unique_ptrIPlNS_22__allocator_destructorINS_9allocatorIlEEEEED1B7v160006Ev, symObjAddr: 0x58B4, symBinAddr: 0x1000077F4, symSize: 0x2C }
  - { offsetInCU: 0x13AA9, offset: 0x13AA9, size: 0x8, addend: 0x0, symName: __ZNSt3__114__split_bufferIPlRNS_9allocatorIS1_EEED1Ev, symObjAddr: 0x58E0, symBinAddr: 0x100007820, symSize: 0x2C }
  - { offsetInCU: 0x13AD5, offset: 0x13AD5, size: 0x8, addend: 0x0, symName: __ZNSt3__114__split_bufferIPlRNS_9allocatorIS1_EEE18__construct_at_endINS_13move_iteratorIPS1_EEEENS_9enable_ifIXsr27__is_cpp17_forward_iteratorIT_EE5valueEvE4typeESB_SB_, symObjAddr: 0x594C, symBinAddr: 0x10000788C, symSize: 0xFC }
  - { offsetInCU: 0x13B31, offset: 0x13B31, size: 0x8, addend: 0x0, symName: __ZNSt3__113move_iteratorIPPlEC1B7v160006ES2_, symObjAddr: 0x5A48, symBinAddr: 0x100007988, symSize: 0x34 }
  - { offsetInCU: 0x13B69, offset: 0x13B69, size: 0x8, addend: 0x0, symName: __ZNSt3__116allocator_traitsINS_9allocatorIPlEEE9constructB7v160006IS2_JRKS2_EvEEvRS3_PT_DpOT0_, symObjAddr: 0x5A7C, symBinAddr: 0x1000079BC, symSize: 0x34 }
  - { offsetInCU: 0x13BE4, offset: 0x13BE4, size: 0x8, addend: 0x0, symName: __ZNKSt3__114__move_trivialclB7v160006IPlS2_Li0EEENS_4pairIPT_PT0_EES5_S5_S7_, symObjAddr: 0x5C4C, symBinAddr: 0x100007B8C, symSize: 0x48 }
  - { offsetInCU: 0x13C52, offset: 0x13C52, size: 0x8, addend: 0x0, symName: __ZNSt3__14pairIPPlS2_EC1B7v160006IRS2_S2_LPv0EEEOT_OT0_, symObjAddr: 0x5E14, symBinAddr: 0x100007D54, symSize: 0x3C }
  - { offsetInCU: 0x13CB0, offset: 0x13CB0, size: 0x8, addend: 0x0, symName: __ZNSt3__14pairIPPlS2_EC2B7v160006IRS2_S2_LPv0EEEOT_OT0_, symObjAddr: 0x5E50, symBinAddr: 0x100007D90, symSize: 0x34 }
  - { offsetInCU: 0x13D0E, offset: 0x13D0E, size: 0x8, addend: 0x0, symName: __ZNSt3__118__unwrap_iter_implIPPlLb1EE8__unwrapB7v160006ES2_, symObjAddr: 0x5E84, symBinAddr: 0x100007DC4, symSize: 0x24 }
  - { offsetInCU: 0x13D31, offset: 0x13D31, size: 0x8, addend: 0x0, symName: __ZNSt3__14pairIPPlS2_EC1B7v160006IS2_S2_LPv0EEEOT_OT0_, symObjAddr: 0x5EA8, symBinAddr: 0x100007DE8, symSize: 0x3C }
  - { offsetInCU: 0x13D8F, offset: 0x13D8F, size: 0x8, addend: 0x0, symName: __ZNSt3__14pairIPPlS2_EC2B7v160006IS2_S2_LPv0EEEOT_OT0_, symObjAddr: 0x5EE4, symBinAddr: 0x100007E24, symSize: 0x34 }
  - { offsetInCU: 0x13DED, offset: 0x13DED, size: 0x8, addend: 0x0, symName: __ZNSt3__118__unwrap_iter_implIPPlLb1EE8__rewrapB7v160006ES2_S2_, symObjAddr: 0x5F18, symBinAddr: 0x100007E58, symSize: 0x50 }
  - { offsetInCU: 0x13E28, offset: 0x13E28, size: 0x8, addend: 0x0, symName: __ZNSt3__114__split_bufferIPlRNS_9allocatorIS1_EEE21_ConstructTransactionC1B7v160006EPPS1_m, symObjAddr: 0x5FA4, symBinAddr: 0x100007EE4, symSize: 0x3C }
  - { offsetInCU: 0x13E6E, offset: 0x13E6E, size: 0x8, addend: 0x0, symName: __ZNSt3__116allocator_traitsINS_9allocatorIPlEEE9constructB7v160006IS2_JS2_EvEEvRS3_PT_DpOT0_, symObjAddr: 0x5FE0, symBinAddr: 0x100007F20, symSize: 0x34 }
  - { offsetInCU: 0x13EC5, offset: 0x13EC5, size: 0x8, addend: 0x0, symName: __ZNSt3__114__split_bufferIPlRNS_9allocatorIS1_EEE7__allocB7v160006Ev, symObjAddr: 0x6014, symBinAddr: 0x100007F54, symSize: 0x28 }
  - { offsetInCU: 0x13EEB, offset: 0x13EEB, size: 0x8, addend: 0x0, symName: __ZNKSt3__113move_iteratorIPPlEdeB7v160006Ev, symObjAddr: 0x603C, symBinAddr: 0x100007F7C, symSize: 0x18 }
  - { offsetInCU: 0x13F11, offset: 0x13F11, size: 0x8, addend: 0x0, symName: __ZNSt3__113move_iteratorIPPlEppB7v160006Ev, symObjAddr: 0x6054, symBinAddr: 0x100007F94, symSize: 0x20 }
  - { offsetInCU: 0x13F37, offset: 0x13F37, size: 0x8, addend: 0x0, symName: __ZNSt3__114__split_bufferIPlRNS_9allocatorIS1_EEE21_ConstructTransactionD1B7v160006Ev, symObjAddr: 0x6074, symBinAddr: 0x100007FB4, symSize: 0x2C }
  - { offsetInCU: 0x13F61, offset: 0x13F61, size: 0x8, addend: 0x0, symName: __ZNKSt3__113move_iteratorIPPlE4baseB7v160006Ev, symObjAddr: 0x6118, symBinAddr: 0x100008058, symSize: 0x18 }
  - { offsetInCU: 0x13F87, offset: 0x13F87, size: 0x8, addend: 0x0, symName: __ZNSt3__114__split_bufferIPlRNS_9allocatorIS1_EEE21_ConstructTransactionC2B7v160006EPPS1_m, symObjAddr: 0x6130, symBinAddr: 0x100008070, symSize: 0x44 }
  - { offsetInCU: 0x13FCD, offset: 0x13FCD, size: 0x8, addend: 0x0, symName: __ZNSt3__19allocatorIPlE9constructB7v160006IS1_JS1_EEEvPT_DpOT0_, symObjAddr: 0x6174, symBinAddr: 0x1000080B4, symSize: 0x28 }
  - { offsetInCU: 0x14023, offset: 0x14023, size: 0x8, addend: 0x0, symName: __ZNSt3__117__compressed_pairIPPlRNS_9allocatorIS1_EEE6secondB7v160006Ev, symObjAddr: 0x619C, symBinAddr: 0x1000080DC, symSize: 0x28 }
  - { offsetInCU: 0x14049, offset: 0x14049, size: 0x8, addend: 0x0, symName: __ZNSt3__122__compressed_pair_elemIRNS_9allocatorIPlEELi1ELb0EE5__getB7v160006Ev, symObjAddr: 0x61C4, symBinAddr: 0x100008104, symSize: 0x18 }
  - { offsetInCU: 0x1406F, offset: 0x1406F, size: 0x8, addend: 0x0, symName: __ZNSt3__114__split_bufferIPlRNS_9allocatorIS1_EEE21_ConstructTransactionD2B7v160006Ev, symObjAddr: 0x61DC, symBinAddr: 0x10000811C, symSize: 0x20 }
  - { offsetInCU: 0x14099, offset: 0x14099, size: 0x8, addend: 0x0, symName: __ZNSt3__113move_iteratorIPPlEC2B7v160006ES2_, symObjAddr: 0x61FC, symBinAddr: 0x10000813C, symSize: 0x20 }
  - { offsetInCU: 0x140D1, offset: 0x140D1, size: 0x8, addend: 0x0, symName: __ZNSt3__19allocatorIPlE9constructB7v160006IS1_JRKS1_EEEvPT_DpOT0_, symObjAddr: 0x621C, symBinAddr: 0x10000815C, symSize: 0x28 }
  - { offsetInCU: 0x14127, offset: 0x14127, size: 0x8, addend: 0x0, symName: __ZNSt3__19allocatorIlE8allocateB7v160006Em, symObjAddr: 0x6244, symBinAddr: 0x100008184, symSize: 0x58 }
  - { offsetInCU: 0x14165, offset: 0x14165, size: 0x8, addend: 0x0, symName: __ZNSt3__116allocator_traitsINS_9allocatorIlEEE8max_sizeB7v160006IS2_vEEmRKS2_, symObjAddr: 0x629C, symBinAddr: 0x1000081DC, symSize: 0x24 }
  - { offsetInCU: 0x14193, offset: 0x14193, size: 0x8, addend: 0x0, symName: __ZNKSt3__19allocatorIlE8max_sizeB7v160006Ev, symObjAddr: 0x631C, symBinAddr: 0x10000825C, symSize: 0x14 }
  - { offsetInCU: 0x141C3, offset: 0x141C3, size: 0x8, addend: 0x0, symName: __ZNKSt3__123__move_backward_trivialclB7v160006IPlS2_Li0EEENS_4pairIPT_PT0_EES5_S5_S7_, symObjAddr: 0x64D0, symBinAddr: 0x100008410, symSize: 0x48 }
  - { offsetInCU: 0x1422B, offset: 0x1422B, size: 0x8, addend: 0x0, symName: __ZNSt3__14pairIPPlS2_EC1B7v160006IRS2_S5_LPv0EEEOT_OT0_, symObjAddr: 0x65E4, symBinAddr: 0x100008524, symSize: 0x3C }
  - { offsetInCU: 0x14289, offset: 0x14289, size: 0x8, addend: 0x0, symName: __ZNSt3__14pairIPPlS2_EC2B7v160006IRS2_S5_LPv0EEEOT_OT0_, symObjAddr: 0x6620, symBinAddr: 0x100008560, symSize: 0x34 }
  - { offsetInCU: 0x142F1, offset: 0x142F1, size: 0x8, addend: 0x0, symName: __ZNKSt3__16__lessImmEclB7v160006ERKmS3_, symObjAddr: 0x66A8, symBinAddr: 0x1000085E8, symSize: 0x34 }
  - { offsetInCU: 0x14333, offset: 0x14333, size: 0x8, addend: 0x0, symName: __ZNSt3__114__split_bufferIPlRNS_9allocatorIS1_EEEC2EmmS4_, symObjAddr: 0x66DC, symBinAddr: 0x10000861C, symSize: 0xD4 }
  - { offsetInCU: 0x143A6, offset: 0x143A6, size: 0x8, addend: 0x0, symName: __ZNSt3__117__compressed_pairIPPlRNS_9allocatorIS1_EEEC1B7v160006IDnS5_EEOT_OT0_, symObjAddr: 0x67B0, symBinAddr: 0x1000086F0, symSize: 0x3C }
  - { offsetInCU: 0x143FE, offset: 0x143FE, size: 0x8, addend: 0x0, symName: __ZNSt3__117__compressed_pairIPPlRNS_9allocatorIS1_EEEC2B7v160006IDnS5_EEOT_OT0_, symObjAddr: 0x682C, symBinAddr: 0x10000876C, symSize: 0x48 }
  - { offsetInCU: 0x14456, offset: 0x14456, size: 0x8, addend: 0x0, symName: __ZNSt3__122__compressed_pair_elemIRNS_9allocatorIPlEELi1ELb0EEC2B7v160006IS4_vEEOT_, symObjAddr: 0x6874, symBinAddr: 0x1000087B4, symSize: 0x20 }
  - { offsetInCU: 0x14498, offset: 0x14498, size: 0x8, addend: 0x0, symName: __ZNSt3__19allocatorIPlE8allocateB7v160006Em, symObjAddr: 0x6894, symBinAddr: 0x1000087D4, symSize: 0x58 }
  - { offsetInCU: 0x144D6, offset: 0x144D6, size: 0x8, addend: 0x0, symName: __ZNSt3__116allocator_traitsINS_9allocatorIPlEEE8max_sizeB7v160006IS3_vEEmRKS3_, symObjAddr: 0x68EC, symBinAddr: 0x10000882C, symSize: 0x24 }
  - { offsetInCU: 0x14504, offset: 0x14504, size: 0x8, addend: 0x0, symName: __ZNKSt3__19allocatorIPlE8max_sizeB7v160006Ev, symObjAddr: 0x6910, symBinAddr: 0x100008850, symSize: 0x14 }
  - { offsetInCU: 0x1452A, offset: 0x1452A, size: 0x8, addend: 0x0, symName: __ZNSt3__122__allocator_destructorINS_9allocatorIlEEEC2B7v160006ERS2_m, symObjAddr: 0x6924, symBinAddr: 0x100008864, symSize: 0x2C }
  - { offsetInCU: 0x14570, offset: 0x14570, size: 0x8, addend: 0x0, symName: __ZNSt3__110unique_ptrIPlNS_22__allocator_destructorINS_9allocatorIlEEEEEC2B7v160006ILb1EvEES1_NS_16__dependent_typeINS_27__unique_ptr_deleter_sfinaeIS5_EEXT_EE20__good_rval_ref_typeE, symObjAddr: 0x6950, symBinAddr: 0x100008890, symSize: 0x48 }
  - { offsetInCU: 0x145C1, offset: 0x145C1, size: 0x8, addend: 0x0, symName: __ZNSt3__117__compressed_pairIPlNS_22__allocator_destructorINS_9allocatorIlEEEEEC1B7v160006IRS1_S5_EEOT_OT0_, symObjAddr: 0x6998, symBinAddr: 0x1000088D8, symSize: 0x3C }
  - { offsetInCU: 0x14619, offset: 0x14619, size: 0x8, addend: 0x0, symName: __ZNSt3__117__compressed_pairIPlNS_22__allocator_destructorINS_9allocatorIlEEEEEC2B7v160006IRS1_S5_EEOT_OT0_, symObjAddr: 0x69D4, symBinAddr: 0x100008914, symSize: 0x48 }
  - { offsetInCU: 0x14671, offset: 0x14671, size: 0x8, addend: 0x0, symName: __ZNSt3__122__compressed_pair_elemIPlLi0ELb0EEC2B7v160006IRS1_vEEOT_, symObjAddr: 0x6A1C, symBinAddr: 0x10000895C, symSize: 0x24 }
  - { offsetInCU: 0x146B3, offset: 0x146B3, size: 0x8, addend: 0x0, symName: __ZNSt3__122__compressed_pair_elemINS_22__allocator_destructorINS_9allocatorIlEEEELi1ELb0EEC2B7v160006IS4_vEEOT_, symObjAddr: 0x6A40, symBinAddr: 0x100008980, symSize: 0x24 }
  - { offsetInCU: 0x146F5, offset: 0x146F5, size: 0x8, addend: 0x0, symName: __ZNKSt3__117__compressed_pairIPlNS_22__allocator_destructorINS_9allocatorIlEEEEE5firstB7v160006Ev, symObjAddr: 0x6A64, symBinAddr: 0x1000089A4, symSize: 0x24 }
  - { offsetInCU: 0x1471B, offset: 0x1471B, size: 0x8, addend: 0x0, symName: __ZNKSt3__122__compressed_pair_elemIPlLi0ELb0EE5__getB7v160006Ev, symObjAddr: 0x6A88, symBinAddr: 0x1000089C8, symSize: 0x14 }
  - { offsetInCU: 0x14741, offset: 0x14741, size: 0x8, addend: 0x0, symName: __ZNSt3__117__compressed_pairIPlNS_22__allocator_destructorINS_9allocatorIlEEEEE5firstB7v160006Ev, symObjAddr: 0x6A9C, symBinAddr: 0x1000089DC, symSize: 0x24 }
  - { offsetInCU: 0x14767, offset: 0x14767, size: 0x8, addend: 0x0, symName: __ZNSt3__122__compressed_pair_elemIPlLi0ELb0EE5__getB7v160006Ev, symObjAddr: 0x6AC0, symBinAddr: 0x100008A00, symSize: 0x14 }
  - { offsetInCU: 0x1478D, offset: 0x1478D, size: 0x8, addend: 0x0, symName: __ZNSt3__117__compressed_pairIPPlNS_9allocatorIS1_EEE5firstB7v160006Ev, symObjAddr: 0x6AD4, symBinAddr: 0x100008A14, symSize: 0x24 }
  - { offsetInCU: 0x147B3, offset: 0x147B3, size: 0x8, addend: 0x0, symName: __ZNSt3__122__compressed_pair_elemIPPlLi0ELb0EE5__getB7v160006Ev, symObjAddr: 0x6AF8, symBinAddr: 0x100008A38, symSize: 0x14 }
  - { offsetInCU: 0x147D9, offset: 0x147D9, size: 0x8, addend: 0x0, symName: __ZNSt3__117__compressed_pairIPPlRNS_9allocatorIS1_EEE5firstB7v160006Ev, symObjAddr: 0x6B0C, symBinAddr: 0x100008A4C, symSize: 0x24 }
  - { offsetInCU: 0x147FF, offset: 0x147FF, size: 0x8, addend: 0x0, symName: __ZNSt3__110unique_ptrIPlNS_22__allocator_destructorINS_9allocatorIlEEEEED2B7v160006Ev, symObjAddr: 0x6B30, symBinAddr: 0x100008A70, symSize: 0x30 }
  - { offsetInCU: 0x14829, offset: 0x14829, size: 0x8, addend: 0x0, symName: __ZNSt3__110unique_ptrIPlNS_22__allocator_destructorINS_9allocatorIlEEEEE5resetB7v160006ES1_, symObjAddr: 0x6B60, symBinAddr: 0x100008AA0, symSize: 0x78 }
  - { offsetInCU: 0x1486D, offset: 0x1486D, size: 0x8, addend: 0x0, symName: __ZNSt3__117__compressed_pairIPlNS_22__allocator_destructorINS_9allocatorIlEEEEE6secondB7v160006Ev, symObjAddr: 0x6BD8, symBinAddr: 0x100008B18, symSize: 0x28 }
  - { offsetInCU: 0x14893, offset: 0x14893, size: 0x8, addend: 0x0, symName: __ZNSt3__122__allocator_destructorINS_9allocatorIlEEEclB7v160006EPl, symObjAddr: 0x6C00, symBinAddr: 0x100008B40, symSize: 0x34 }
  - { offsetInCU: 0x148C7, offset: 0x148C7, size: 0x8, addend: 0x0, symName: __ZNSt3__122__compressed_pair_elemINS_22__allocator_destructorINS_9allocatorIlEEEELi1ELb0EE5__getB7v160006Ev, symObjAddr: 0x6C34, symBinAddr: 0x100008B74, symSize: 0x14 }
  - { offsetInCU: 0x148ED, offset: 0x148ED, size: 0x8, addend: 0x0, symName: __ZNSt3__114__split_bufferIPlRNS_9allocatorIS1_EEED2Ev, symObjAddr: 0x6C48, symBinAddr: 0x100008B88, symSize: 0x8C }
  - { offsetInCU: 0x14919, offset: 0x14919, size: 0x8, addend: 0x0, symName: __ZNSt3__114__split_bufferIPlRNS_9allocatorIS1_EEE5clearB7v160006Ev, symObjAddr: 0x6CD4, symBinAddr: 0x100008C14, symSize: 0x28 }
  - { offsetInCU: 0x1493F, offset: 0x1493F, size: 0x8, addend: 0x0, symName: __ZNKSt3__114__split_bufferIPlRNS_9allocatorIS1_EEE8capacityB7v160006Ev, symObjAddr: 0x6CFC, symBinAddr: 0x100008C3C, symSize: 0x40 }
  - { offsetInCU: 0x14965, offset: 0x14965, size: 0x8, addend: 0x0, symName: __ZNSt3__114__split_bufferIPlRNS_9allocatorIS1_EEE17__destruct_at_endB7v160006EPS1_, symObjAddr: 0x6D3C, symBinAddr: 0x100008C7C, symSize: 0x2C }
  - { offsetInCU: 0x14999, offset: 0x14999, size: 0x8, addend: 0x0, symName: __ZNSt3__114__split_bufferIPlRNS_9allocatorIS1_EEE17__destruct_at_endB7v160006EPS1_NS_17integral_constantIbLb0EEE, symObjAddr: 0x6D68, symBinAddr: 0x100008CA8, symSize: 0x80 }
  - { offsetInCU: 0x149D9, offset: 0x149D9, size: 0x8, addend: 0x0, symName: __ZNKSt3__114__split_bufferIPlRNS_9allocatorIS1_EEE9__end_capB7v160006Ev, symObjAddr: 0x6DE8, symBinAddr: 0x100008D28, symSize: 0x28 }
  - { offsetInCU: 0x149FF, offset: 0x149FF, size: 0x8, addend: 0x0, symName: __ZNKSt3__117__compressed_pairIPPlRNS_9allocatorIS1_EEE5firstB7v160006Ev, symObjAddr: 0x6E10, symBinAddr: 0x100008D50, symSize: 0x24 }
  - { offsetInCU: 0x14A25, offset: 0x14A25, size: 0x8, addend: 0x0, symName: __ZNSt3__19allocatorIlE9constructB7v160006IlJlEEEvPT_DpOT0_, symObjAddr: 0x6E34, symBinAddr: 0x100008D74, symSize: 0x28 }
  - { offsetInCU: 0x14A7B, offset: 0x14A7B, size: 0x8, addend: 0x0, symName: __ZNKSt3__111__wrap_iterIPP7ProcessEplB7v160006El, symObjAddr: 0x70B4, symBinAddr: 0x100008FF4, symSize: 0x3C }
  - { offsetInCU: 0x14ABD, offset: 0x14ABD, size: 0x8, addend: 0x0, symName: __ZNK22CompareProcessByThreadclEPK7ProcessS2_, symObjAddr: 0x70F0, symBinAddr: 0x100009030, symSize: 0x34 }
  - { offsetInCU: 0x14AFF, offset: 0x14AFF, size: 0x8, addend: 0x0, symName: __ZNSt3__111__wrap_iterIPP7ProcessEmmB7v160006Ev, symObjAddr: 0x7124, symBinAddr: 0x100009064, symSize: 0x20 }
  - { offsetInCU: 0x14B2B, offset: 0x14B2B, size: 0x8, addend: 0x0, symName: __ZNSt3__18_IterOpsINS_17_ClassicAlgPolicyEE11__iter_moveB7v160006IRNS_11__wrap_iterIPP7ProcessEEEENS_9enable_ifIXsr12is_referenceIDTdeclsr3stdE7declvalIRT_EEEEE5valueEDTclsr3stdE4movedeclsr3stdE7declvalISC_EEEEE4typeEOSB_, symObjAddr: 0x7144, symBinAddr: 0x100009084, symSize: 0x28 }
  - { offsetInCU: 0x14B57, offset: 0x14B57, size: 0x8, addend: 0x0, symName: __ZNSt3__111__wrap_iterIPP7ProcessEpLB7v160006El, symObjAddr: 0x716C, symBinAddr: 0x1000090AC, symSize: 0x28 }
  - { offsetInCU: 0x14B8B, offset: 0x14B8B, size: 0x8, addend: 0x0, symName: __ZNSt3__18_IterOpsINS_17_ClassicAlgPolicyEE25__validate_iter_referenceB7v160006IRNS_11__wrap_iterIPP7ProcessEEEEvv, symObjAddr: 0x7194, symBinAddr: 0x1000090D4, symSize: 0x4 }
  - { offsetInCU: 0x14BA9, offset: 0x14BA9, size: 0x8, addend: 0x0, symName: __ZNSt3__16vectorIP7ProcessNS_9allocatorIS2_EEE9__end_capB7v160006Ev, symObjAddr: 0x7198, symBinAddr: 0x1000090D8, symSize: 0x28 }
  - { offsetInCU: 0x14BCF, offset: 0x14BCF, size: 0x8, addend: 0x0, symName: __ZNSt3__16vectorIP7ProcessNS_9allocatorIS2_EEE22__construct_one_at_endB7v160006IJRKS2_EEEvDpOT_, symObjAddr: 0x71C0, symBinAddr: 0x100009100, symSize: 0x90 }
  - { offsetInCU: 0x14C1E, offset: 0x14C1E, size: 0x8, addend: 0x0, symName: __ZNSt3__16vectorIP7ProcessNS_9allocatorIS2_EEE21__push_back_slow_pathIRKS2_EEvOT_, symObjAddr: 0x7250, symBinAddr: 0x100009190, symSize: 0xD8 }
  - { offsetInCU: 0x14C7C, offset: 0x14C7C, size: 0x8, addend: 0x0, symName: __ZNSt3__117__compressed_pairIPP7ProcessNS_9allocatorIS2_EEE5firstB7v160006Ev, symObjAddr: 0x7328, symBinAddr: 0x100009268, symSize: 0x24 }
  - { offsetInCU: 0x14CA2, offset: 0x14CA2, size: 0x8, addend: 0x0, symName: __ZNSt3__122__compressed_pair_elemIPP7ProcessLi0ELb0EE5__getB7v160006Ev, symObjAddr: 0x734C, symBinAddr: 0x10000928C, symSize: 0x14 }
  - { offsetInCU: 0x14CE1, offset: 0x14CE1, size: 0x8, addend: 0x0, symName: __ZNSt3__16vectorIP7ProcessNS_9allocatorIS2_EEE21_ConstructTransactionC1B7v160006ERS5_m, symObjAddr: 0x7360, symBinAddr: 0x1000092A0, symSize: 0x3C }
  - { offsetInCU: 0x14D29, offset: 0x14D29, size: 0x8, addend: 0x0, symName: __ZNSt3__116allocator_traitsINS_9allocatorIP7ProcessEEE9constructB7v160006IS3_JRKS3_EvEEvRS4_PT_DpOT0_, symObjAddr: 0x739C, symBinAddr: 0x1000092DC, symSize: 0x34 }
  - { offsetInCU: 0x14D80, offset: 0x14D80, size: 0x8, addend: 0x0, symName: __ZNSt3__16vectorIP7ProcessNS_9allocatorIS2_EEE21_ConstructTransactionD1B7v160006Ev, symObjAddr: 0x73D0, symBinAddr: 0x100009310, symSize: 0x2C }
  - { offsetInCU: 0x14DAA, offset: 0x14DAA, size: 0x8, addend: 0x0, symName: __ZNSt3__16vectorIP7ProcessNS_9allocatorIS2_EEE21_ConstructTransactionC2B7v160006ERS5_m, symObjAddr: 0x73FC, symBinAddr: 0x10000933C, symSize: 0x44 }
  - { offsetInCU: 0x14DF2, offset: 0x14DF2, size: 0x8, addend: 0x0, symName: __ZNSt3__19allocatorIP7ProcessE9constructB7v160006IS2_JRKS2_EEEvPT_DpOT0_, symObjAddr: 0x7440, symBinAddr: 0x100009380, symSize: 0x28 }
  - { offsetInCU: 0x14E48, offset: 0x14E48, size: 0x8, addend: 0x0, symName: __ZNSt3__16vectorIP7ProcessNS_9allocatorIS2_EEE21_ConstructTransactionD2B7v160006Ev, symObjAddr: 0x7468, symBinAddr: 0x1000093A8, symSize: 0x20 }
  - { offsetInCU: 0x14E72, offset: 0x14E72, size: 0x8, addend: 0x0, symName: __ZNKSt3__16vectorIP7ProcessNS_9allocatorIS2_EEE11__recommendB7v160006Em, symObjAddr: 0x7488, symBinAddr: 0x1000093C8, symSize: 0xB4 }
  - { offsetInCU: 0x14EC7, offset: 0x14EC7, size: 0x8, addend: 0x0, symName: __ZNSt3__114__split_bufferIP7ProcessRNS_9allocatorIS2_EEEC1EmmS5_, symObjAddr: 0x753C, symBinAddr: 0x10000947C, symSize: 0x44 }
  - { offsetInCU: 0x14F1D, offset: 0x14F1D, size: 0x8, addend: 0x0, symName: __ZNSt3__114__split_bufferIP7ProcessRNS_9allocatorIS2_EEED1Ev, symObjAddr: 0x7698, symBinAddr: 0x1000095D8, symSize: 0x2C }
  - { offsetInCU: 0x14F49, offset: 0x14F49, size: 0x8, addend: 0x0, symName: __ZNKSt3__16vectorIP7ProcessNS_9allocatorIS2_EEE8max_sizeEv, symObjAddr: 0x76C4, symBinAddr: 0x100009604, symSize: 0x60 }
  - { offsetInCU: 0x14F71, offset: 0x14F71, size: 0x8, addend: 0x0, symName: __ZNKSt3__16vectorIP7ProcessNS_9allocatorIS2_EEE20__throw_length_errorB7v160006Ev, symObjAddr: 0x7724, symBinAddr: 0x100009664, symSize: 0x1C }
  - { offsetInCU: 0x14FA1, offset: 0x14FA1, size: 0x8, addend: 0x0, symName: __ZNSt3__116allocator_traitsINS_9allocatorIP7ProcessEEE8max_sizeB7v160006IS4_vEEmRKS4_, symObjAddr: 0x776C, symBinAddr: 0x1000096AC, symSize: 0x24 }
  - { offsetInCU: 0x14FCF, offset: 0x14FCF, size: 0x8, addend: 0x0, symName: __ZNKSt3__16vectorIP7ProcessNS_9allocatorIS2_EEE7__allocB7v160006Ev, symObjAddr: 0x7790, symBinAddr: 0x1000096D0, symSize: 0x28 }
  - { offsetInCU: 0x14FF5, offset: 0x14FF5, size: 0x8, addend: 0x0, symName: __ZNSt3__114numeric_limitsIlE3maxB7v160006Ev, symObjAddr: 0x77B8, symBinAddr: 0x1000096F8, symSize: 0x14 }
  - { offsetInCU: 0x15009, offset: 0x15009, size: 0x8, addend: 0x0, symName: __ZNKSt3__19allocatorIP7ProcessE8max_sizeB7v160006Ev, symObjAddr: 0x7820, symBinAddr: 0x100009760, symSize: 0x14 }
  - { offsetInCU: 0x1502F, offset: 0x1502F, size: 0x8, addend: 0x0, symName: __ZNKSt3__117__compressed_pairIPP7ProcessNS_9allocatorIS2_EEE6secondB7v160006Ev, symObjAddr: 0x7834, symBinAddr: 0x100009774, symSize: 0x24 }
  - { offsetInCU: 0x15055, offset: 0x15055, size: 0x8, addend: 0x0, symName: __ZNKSt3__122__compressed_pair_elemINS_9allocatorIP7ProcessEELi1ELb1EE5__getB7v160006Ev, symObjAddr: 0x7858, symBinAddr: 0x100009798, symSize: 0x14 }
  - { offsetInCU: 0x1507B, offset: 0x1507B, size: 0x8, addend: 0x0, symName: __ZNSt3__123__libcpp_numeric_limitsIlLb1EE3maxB7v160006Ev, symObjAddr: 0x786C, symBinAddr: 0x1000097AC, symSize: 0x8 }
  - { offsetInCU: 0x1508F, offset: 0x1508F, size: 0x8, addend: 0x0, symName: __ZNSt12length_errorC1B7v160006EPKc, symObjAddr: 0x78D8, symBinAddr: 0x100009818, symSize: 0x34 }
  - { offsetInCU: 0x150C7, offset: 0x150C7, size: 0x8, addend: 0x0, symName: __ZNSt12length_errorC2B7v160006EPKc, symObjAddr: 0x790C, symBinAddr: 0x10000984C, symSize: 0x4C }
  - { offsetInCU: 0x150FF, offset: 0x150FF, size: 0x8, addend: 0x0, symName: __ZNSt3__114__split_bufferIP7ProcessRNS_9allocatorIS2_EEEC2EmmS5_, symObjAddr: 0x7958, symBinAddr: 0x100009898, symSize: 0xD4 }
  - { offsetInCU: 0x15172, offset: 0x15172, size: 0x8, addend: 0x0, symName: __ZNSt3__117__compressed_pairIPP7ProcessRNS_9allocatorIS2_EEEC1B7v160006IDnS6_EEOT_OT0_, symObjAddr: 0x7A2C, symBinAddr: 0x10000996C, symSize: 0x3C }
  - { offsetInCU: 0x151CA, offset: 0x151CA, size: 0x8, addend: 0x0, symName: __ZNSt3__114__split_bufferIP7ProcessRNS_9allocatorIS2_EEE7__allocB7v160006Ev, symObjAddr: 0x7AA8, symBinAddr: 0x1000099E8, symSize: 0x28 }
  - { offsetInCU: 0x151F0, offset: 0x151F0, size: 0x8, addend: 0x0, symName: __ZNSt3__114__split_bufferIP7ProcessRNS_9allocatorIS2_EEE9__end_capB7v160006Ev, symObjAddr: 0x7AD0, symBinAddr: 0x100009A10, symSize: 0x28 }
  - { offsetInCU: 0x15216, offset: 0x15216, size: 0x8, addend: 0x0, symName: __ZNSt3__117__compressed_pairIPP7ProcessRNS_9allocatorIS2_EEEC2B7v160006IDnS6_EEOT_OT0_, symObjAddr: 0x7AF8, symBinAddr: 0x100009A38, symSize: 0x48 }
  - { offsetInCU: 0x1526E, offset: 0x1526E, size: 0x8, addend: 0x0, symName: __ZNSt3__122__compressed_pair_elemIRNS_9allocatorIP7ProcessEELi1ELb0EEC2B7v160006IS5_vEEOT_, symObjAddr: 0x7B40, symBinAddr: 0x100009A80, symSize: 0x20 }
  - { offsetInCU: 0x152B0, offset: 0x152B0, size: 0x8, addend: 0x0, symName: __ZNSt3__19allocatorIP7ProcessE8allocateB7v160006Em, symObjAddr: 0x7B60, symBinAddr: 0x100009AA0, symSize: 0x58 }
  - { offsetInCU: 0x152E4, offset: 0x152E4, size: 0x8, addend: 0x0, symName: __ZNSt3__117__compressed_pairIPP7ProcessRNS_9allocatorIS2_EEE6secondB7v160006Ev, symObjAddr: 0x7BB8, symBinAddr: 0x100009AF8, symSize: 0x28 }
  - { offsetInCU: 0x1530A, offset: 0x1530A, size: 0x8, addend: 0x0, symName: __ZNSt3__122__compressed_pair_elemIRNS_9allocatorIP7ProcessEELi1ELb0EE5__getB7v160006Ev, symObjAddr: 0x7BE0, symBinAddr: 0x100009B20, symSize: 0x18 }
  - { offsetInCU: 0x15330, offset: 0x15330, size: 0x8, addend: 0x0, symName: __ZNSt3__117__compressed_pairIPP7ProcessRNS_9allocatorIS2_EEE5firstB7v160006Ev, symObjAddr: 0x7BF8, symBinAddr: 0x100009B38, symSize: 0x24 }
  - { offsetInCU: 0x15356, offset: 0x15356, size: 0x8, addend: 0x0, symName: __ZNSt3__116reverse_iteratorIPP7ProcessEC1B7v160006ES3_, symObjAddr: 0x7C94, symBinAddr: 0x100009BD4, symSize: 0x34 }
  - { offsetInCU: 0x1538E, offset: 0x1538E, size: 0x8, addend: 0x0, symName: __ZNKSt3__116reverse_iteratorIPP7ProcessE4baseB7v160006Ev, symObjAddr: 0x7CC8, symBinAddr: 0x100009C08, symSize: 0x18 }
  - { offsetInCU: 0x153B4, offset: 0x153B4, size: 0x8, addend: 0x0, symName: __ZNKSt3__16vectorIP7ProcessNS_9allocatorIS2_EEE14__annotate_newB7v160006Em, symObjAddr: 0x7D1C, symBinAddr: 0x100009C5C, symSize: 0xAC }
  - { offsetInCU: 0x1540D, offset: 0x1540D, size: 0x8, addend: 0x0, symName: __ZNKSt3__111__move_loopINS_17_ClassicAlgPolicyEEclB7v160006INS_16reverse_iteratorIPP7ProcessEES8_S8_EENS_4pairIT_T1_EESA_T0_SB_, symObjAddr: 0x80C8, symBinAddr: 0x10000A008, symSize: 0xA0 }
  - { offsetInCU: 0x15478, offset: 0x15478, size: 0x8, addend: 0x0, symName: __ZNSt3__18_IterOpsINS_17_ClassicAlgPolicyEE11__iter_moveB7v160006IRNS_16reverse_iteratorIPP7ProcessEEEENS_9enable_ifIXsr12is_referenceIDTdeclsr3stdE7declvalIRT_EEEEE5valueEDTclsr3stdE4movedeclsr3stdE7declvalISC_EEEEE4typeEOSB_, symObjAddr: 0x82FC, symBinAddr: 0x10000A23C, symSize: 0x28 }
  - { offsetInCU: 0x154A4, offset: 0x154A4, size: 0x8, addend: 0x0, symName: __ZNKSt3__116reverse_iteratorIPP7ProcessEdeB7v160006Ev, symObjAddr: 0x8324, symBinAddr: 0x10000A264, symSize: 0x28 }
  - { offsetInCU: 0x154D8, offset: 0x154D8, size: 0x8, addend: 0x0, symName: __ZNSt3__116reverse_iteratorIPP7ProcessEppB7v160006Ev, symObjAddr: 0x834C, symBinAddr: 0x10000A28C, symSize: 0x20 }
  - { offsetInCU: 0x154FE, offset: 0x154FE, size: 0x8, addend: 0x0, symName: __ZNSt3__18_IterOpsINS_17_ClassicAlgPolicyEE25__validate_iter_referenceB7v160006IRNS_16reverse_iteratorIPP7ProcessEEEEvv, symObjAddr: 0x836C, symBinAddr: 0x10000A2AC, symSize: 0x4 }
  - { offsetInCU: 0x1551C, offset: 0x1551C, size: 0x8, addend: 0x0, symName: __ZNSt3__118__unwrap_iter_implINS_16reverse_iteratorIPP7ProcessEELb0EE8__unwrapB7v160006ES5_, symObjAddr: 0x8370, symBinAddr: 0x10000A2B0, symSize: 0x24 }
  - { offsetInCU: 0x15545, offset: 0x15545, size: 0x8, addend: 0x0, symName: __ZNSt3__14pairINS_16reverse_iteratorIPP7ProcessEES5_EC1B7v160006IS5_S5_LPv0EEEOT_OT0_, symObjAddr: 0x8394, symBinAddr: 0x10000A2D4, symSize: 0x3C }
  - { offsetInCU: 0x155A3, offset: 0x155A3, size: 0x8, addend: 0x0, symName: __ZNSt3__14pairINS_16reverse_iteratorIPP7ProcessEES5_EC2B7v160006IS5_S5_LPv0EEEOT_OT0_, symObjAddr: 0x83D0, symBinAddr: 0x10000A310, symSize: 0x34 }
  - { offsetInCU: 0x15601, offset: 0x15601, size: 0x8, addend: 0x0, symName: __ZNSt3__118__unwrap_iter_implINS_16reverse_iteratorIPP7ProcessEELb0EE8__rewrapB7v160006ES5_S5_, symObjAddr: 0x8404, symBinAddr: 0x10000A344, symSize: 0x2C }
  - { offsetInCU: 0x1562E, offset: 0x1562E, size: 0x8, addend: 0x0, symName: __ZNSt3__116reverse_iteratorIPP7ProcessEC2B7v160006ES3_, symObjAddr: 0x8430, symBinAddr: 0x10000A370, symSize: 0x28 }
  - { offsetInCU: 0x15666, offset: 0x15666, size: 0x8, addend: 0x0, symName: __ZNSt3__114__split_bufferIP7ProcessRNS_9allocatorIS2_EEED2Ev, symObjAddr: 0x8458, symBinAddr: 0x10000A398, symSize: 0x8C }
  - { offsetInCU: 0x15692, offset: 0x15692, size: 0x8, addend: 0x0, symName: __ZNSt3__114__split_bufferIP7ProcessRNS_9allocatorIS2_EEE5clearB7v160006Ev, symObjAddr: 0x84E4, symBinAddr: 0x10000A424, symSize: 0x28 }
  - { offsetInCU: 0x156B8, offset: 0x156B8, size: 0x8, addend: 0x0, symName: __ZNKSt3__114__split_bufferIP7ProcessRNS_9allocatorIS2_EEE8capacityB7v160006Ev, symObjAddr: 0x850C, symBinAddr: 0x10000A44C, symSize: 0x40 }
  - { offsetInCU: 0x156DE, offset: 0x156DE, size: 0x8, addend: 0x0, symName: __ZNSt3__114__split_bufferIP7ProcessRNS_9allocatorIS2_EEE17__destruct_at_endB7v160006EPS2_, symObjAddr: 0x854C, symBinAddr: 0x10000A48C, symSize: 0x2C }
  - { offsetInCU: 0x15712, offset: 0x15712, size: 0x8, addend: 0x0, symName: __ZNSt3__114__split_bufferIP7ProcessRNS_9allocatorIS2_EEE17__destruct_at_endB7v160006EPS2_NS_17integral_constantIbLb0EEE, symObjAddr: 0x8578, symBinAddr: 0x10000A4B8, symSize: 0x80 }
  - { offsetInCU: 0x15752, offset: 0x15752, size: 0x8, addend: 0x0, symName: __ZNKSt3__114__split_bufferIP7ProcessRNS_9allocatorIS2_EEE9__end_capB7v160006Ev, symObjAddr: 0x85F8, symBinAddr: 0x10000A538, symSize: 0x28 }
  - { offsetInCU: 0x15778, offset: 0x15778, size: 0x8, addend: 0x0, symName: __ZNKSt3__117__compressed_pairIPP7ProcessRNS_9allocatorIS2_EEE5firstB7v160006Ev, symObjAddr: 0x8620, symBinAddr: 0x10000A560, symSize: 0x24 }
  - { offsetInCU: 0x1579E, offset: 0x1579E, size: 0x8, addend: 0x0, symName: __ZNKSt3__16vectorIP7ProcessNS_9allocatorIS2_EEE5emptyB7v160006Ev, symObjAddr: 0x8644, symBinAddr: 0x10000A584, symSize: 0x28 }
  - { offsetInCU: 0x157C4, offset: 0x157C4, size: 0x8, addend: 0x0, symName: __ZNKSt3__16vectorIP7ProcessNS_9allocatorIS2_EEE5frontB7v160006Ev, symObjAddr: 0x866C, symBinAddr: 0x10000A5AC, symSize: 0x18 }
  - { offsetInCU: 0x157EA, offset: 0x157EA, size: 0x8, addend: 0x0, symName: __ZNSt3__16vectorIP7ProcessNS_9allocatorIS2_EEE8pop_backEv, symObjAddr: 0x86DC, symBinAddr: 0x10000A61C, symSize: 0x2C }
  - { offsetInCU: 0x15812, offset: 0x15812, size: 0x8, addend: 0x0, symName: __ZNK20CompareProcessByTimeclEPK7ProcessS2_, symObjAddr: 0x8B14, symBinAddr: 0x10000AA54, symSize: 0x34 }
  - { offsetInCU: 0x15854, offset: 0x15854, size: 0x8, addend: 0x0, symName: __ZNSt3__16vectorIP7ProcessNS_9allocatorIS2_EEE17__destruct_at_endB7v160006EPS2_, symObjAddr: 0x8B48, symBinAddr: 0x10000AA88, symSize: 0x60 }
  - { offsetInCU: 0x15898, offset: 0x15898, size: 0x8, addend: 0x0, symName: __ZNSt3__16vectorIP7ProcessNS_9allocatorIS2_EEE27__invalidate_iterators_pastB7v160006EPS2_, symObjAddr: 0x8BA8, symBinAddr: 0x10000AAE8, symSize: 0x14 }
  - { offsetInCU: 0x158CF, offset: 0x158CF, size: 0x8, addend: 0x0, symName: __ZNKSt3__16vectorIP7ProcessNS_9allocatorIS2_EEE17__annotate_shrinkB7v160006Em, symObjAddr: 0x8BBC, symBinAddr: 0x10000AAFC, symSize: 0xB4 }
  - { offsetInCU: 0x15904, offset: 0x15904, size: 0x8, addend: 0x0, symName: __ZNKSt3__15dequeIlNS_9allocatorIlEEE5emptyB7v160006Ev, symObjAddr: 0x8C70, symBinAddr: 0x10000ABB0, symSize: 0x30 }
  - { offsetInCU: 0x1592A, offset: 0x1592A, size: 0x8, addend: 0x0, symName: __ZNSt3__15dequeIlNS_9allocatorIlEEE5frontEv, symObjAddr: 0x8CA0, symBinAddr: 0x10000ABE0, symSize: 0x50 }
  - { offsetInCU: 0x15952, offset: 0x15952, size: 0x8, addend: 0x0, symName: __ZNSt3__15dequeIlNS_9allocatorIlEEE9pop_frontEv, symObjAddr: 0x8CF0, symBinAddr: 0x10000AC30, symSize: 0xAC }
  - { offsetInCU: 0x15989, offset: 0x15989, size: 0x8, addend: 0x0, symName: __ZNSt3__15dequeIlNS_9allocatorIlEEE26__maybe_remove_front_spareB7v160006Eb, symObjAddr: 0x8DB0, symBinAddr: 0x10000ACF0, symSize: 0xDC }
  - { offsetInCU: 0x159BE, offset: 0x159BE, size: 0x8, addend: 0x0, symName: __ZNKSt3__15dequeIlNS_9allocatorIlEEE20__front_spare_blocksB7v160006Ev, symObjAddr: 0x8E8C, symBinAddr: 0x10000ADCC, symSize: 0x2C }
  - { offsetInCU: 0x159E4, offset: 0x159E4, size: 0x8, addend: 0x0, symName: __ZNSt3__16vectorIP7ProcessNS_9allocatorIS2_EEE11__make_iterB7v160006EPS2_, symObjAddr: 0x9244, symBinAddr: 0x10000B184, symSize: 0x34 }
  - { offsetInCU: 0x15A19, offset: 0x15A19, size: 0x8, addend: 0x0, symName: __ZNSt3__111__wrap_iterIPP7ProcessEC1B7v160006EPKvS3_, symObjAddr: 0x9278, symBinAddr: 0x10000B1B8, symSize: 0x3C }
  - { offsetInCU: 0x15A5F, offset: 0x15A5F, size: 0x8, addend: 0x0, symName: __ZNSt3__111__wrap_iterIPP7ProcessEC2B7v160006EPKvS3_, symObjAddr: 0x92B4, symBinAddr: 0x10000B1F4, symSize: 0x24 }
...
